

Microchip MPLAB XC8 Assembler V2.35 build 20211206165544 
                                                                                               Sat Apr 23 23:18:53 2022

Microchip MPLAB XC8 C Compiler v2.35 (Free license) build 20211206165544 Og1 
     1                           	processor	16F887
     2                           	pagewidth 120
     3                           	opt	flic
     4                           	psect	idataBANK0,global,class=CODE,delta=2,noexec
     5                           	psect	cinit,global,class=CODE,merge=1,delta=2
     6                           	psect	bssCOMMON,global,class=COMMON,space=1,delta=1,noexec
     7                           	psect	bssBANK0,global,class=BANK0,space=1,delta=1,noexec
     8                           	psect	dataBANK0,global,class=BANK0,space=1,delta=1,noexec
     9                           	psect	inittext,global,class=CODE,delta=2
    10                           	psect	cstackCOMMON,global,class=COMMON,space=1,delta=1,noexec
    11                           	psect	cstackBANK0,global,class=BANK0,space=1,delta=1,noexec
    12                           	psect	maintext,global,class=CODE,split=1,delta=2
    13                           	psect	text1,local,class=CODE,merge=1,delta=2
    14                           	psect	text2,local,class=CODE,merge=1,delta=2
    15                           	psect	text3,local,class=CODE,merge=1,delta=2
    16                           	psect	text4,local,class=CODE,merge=1,delta=2,group=1
    17                           	psect	text5,local,class=CODE,merge=1,delta=2,group=1
    18                           	psect	text6,local,class=CODE,merge=1,delta=2,group=1
    19                           	psect	text7,local,class=CODE,merge=1,delta=2,group=1
    20                           	psect	text8,local,class=CODE,merge=1,delta=2,group=1
    21                           	psect	text9,local,class=CODE,merge=1,delta=2,group=1
    22                           	psect	text10,local,class=CODE,merge=1,delta=2
    23                           	psect	intentry,global,class=CODE,delta=2
    24                           	psect	idloc,global,abs,ovrld,class=IDLOC,space=5,delta=2,noexec
    25                           	psect	config,global,abs,ovrld,class=CONFIG,space=4,delta=2,noexec
    26                           	dabs	1,0x7E,2
    27  0000                     
    28                           ; Version 2.40
    29                           ; Generated 17/11/2021 GMT
    30                           ; 
    31                           ; Copyright © 2021, Microchip Technology Inc. and its subsidiaries ("Microchip")
    32                           ; All rights reserved.
    33                           ; 
    34                           ; This software is developed by Microchip Technology Inc. and its subsidiaries ("Microch
      +                          ip").
    35                           ; 
    36                           ; Redistribution and use in source and binary forms, with or without modification, are
    37                           ; permitted provided that the following conditions are met:
    38                           ; 
    39                           ;     1. Redistributions of source code must retain the above copyright notice, this lis
      +                          t of
    40                           ;        conditions and the following disclaimer.
    41                           ; 
    42                           ;     2. Redistributions in binary form must reproduce the above copyright notice, this 
      +                          list
    43                           ;        of conditions and the following disclaimer in the documentation and/or other
    44                           ;        materials provided with the distribution. Publication is not required when
    45                           ;        this file is used in an embedded application.
    46                           ; 
    47                           ;     3. Microchip's name may not be used to endorse or promote products derived from th
      +                          is
    48                           ;        software without specific prior written permission.
    49                           ; 
    50                           ; THIS SOFTWARE IS PROVIDED BY MICROCHIP "AS IS" AND ANY EXPRESS OR IMPLIED WARRANTIES,
    51                           ; INCLUDING, BUT NOT LIMITED TO, THE IMPLIED WARRANTIES OF MERCHANTABILITY AND FITNESS F
      +                          OR
    52                           ; PURPOSE ARE DISCLAIMED.  IN NO EVENT SHALL MICROCHIP BE LIABLE FOR ANY DIRECT, INDIREC
      +                          T,
    53                           ; INCIDENTAL, SPECIAL, EXEMPLARY, OR CONSEQUENTIAL DAMAGES (INCLUDING BUT NOT LIMITED TO
    54                           ; PROCUREMENT OF SUBSTITUTE GOODS OR SERVICES; LOSS OF USE, DATA OR PROFITS; OR BUSINESS
    55                           ; INTERRUPTION) HOWSOEVER CAUSED AND ON ANY THEORY OF LIABILITY, WHETHER IN CONTRACT, ST
      +                          RICT
    56                           ; LIABILITY, OR TORT (INCLUDING NEGLIGENCE OR OTHERWISE) ARISING IN ANY WAY OUT OF THE U
      +                          SE OF
    57                           ; THIS SOFTWARE, EVEN IF ADVISED OF THE POSSIBILITY OF SUCH DAMAGE.
    58                           ; 
    59                           ; 
    60                           ; Code-generator required, PIC16F887 Definitions
    61                           ; 
    62                           ; SFR Addresses
    63  0000                     	;# 
    64  0001                     	;# 
    65  0002                     	;# 
    66  0003                     	;# 
    67  0004                     	;# 
    68  0005                     	;# 
    69  0006                     	;# 
    70  0007                     	;# 
    71  0008                     	;# 
    72  0009                     	;# 
    73  000A                     	;# 
    74  000B                     	;# 
    75  000C                     	;# 
    76  000D                     	;# 
    77  000E                     	;# 
    78  000E                     	;# 
    79  000F                     	;# 
    80  0010                     	;# 
    81  0011                     	;# 
    82  0012                     	;# 
    83  0013                     	;# 
    84  0014                     	;# 
    85  0015                     	;# 
    86  0015                     	;# 
    87  0016                     	;# 
    88  0017                     	;# 
    89  0018                     	;# 
    90  0019                     	;# 
    91  001A                     	;# 
    92  001B                     	;# 
    93  001B                     	;# 
    94  001C                     	;# 
    95  001D                     	;# 
    96  001E                     	;# 
    97  001F                     	;# 
    98  0081                     	;# 
    99  0085                     	;# 
   100  0086                     	;# 
   101  0087                     	;# 
   102  0088                     	;# 
   103  0089                     	;# 
   104  008C                     	;# 
   105  008D                     	;# 
   106  008E                     	;# 
   107  008F                     	;# 
   108  0090                     	;# 
   109  0091                     	;# 
   110  0092                     	;# 
   111  0093                     	;# 
   112  0093                     	;# 
   113  0093                     	;# 
   114  0094                     	;# 
   115  0095                     	;# 
   116  0096                     	;# 
   117  0097                     	;# 
   118  0098                     	;# 
   119  0099                     	;# 
   120  009A                     	;# 
   121  009B                     	;# 
   122  009C                     	;# 
   123  009D                     	;# 
   124  009E                     	;# 
   125  009F                     	;# 
   126  0105                     	;# 
   127  0107                     	;# 
   128  0108                     	;# 
   129  0109                     	;# 
   130  010C                     	;# 
   131  010C                     	;# 
   132  010D                     	;# 
   133  010E                     	;# 
   134  010F                     	;# 
   135  0185                     	;# 
   136  0187                     	;# 
   137  0188                     	;# 
   138  0189                     	;# 
   139  018C                     	;# 
   140  018D                     	;# 
   141  0000                     	;# 
   142  0001                     	;# 
   143  0002                     	;# 
   144  0003                     	;# 
   145  0004                     	;# 
   146  0005                     	;# 
   147  0006                     	;# 
   148  0007                     	;# 
   149  0008                     	;# 
   150  0009                     	;# 
   151  000A                     	;# 
   152  000B                     	;# 
   153  000C                     	;# 
   154  000D                     	;# 
   155  000E                     	;# 
   156  000E                     	;# 
   157  000F                     	;# 
   158  0010                     	;# 
   159  0011                     	;# 
   160  0012                     	;# 
   161  0013                     	;# 
   162  0014                     	;# 
   163  0015                     	;# 
   164  0015                     	;# 
   165  0016                     	;# 
   166  0017                     	;# 
   167  0018                     	;# 
   168  0019                     	;# 
   169  001A                     	;# 
   170  001B                     	;# 
   171  001B                     	;# 
   172  001C                     	;# 
   173  001D                     	;# 
   174  001E                     	;# 
   175  001F                     	;# 
   176  0081                     	;# 
   177  0085                     	;# 
   178  0086                     	;# 
   179  0087                     	;# 
   180  0088                     	;# 
   181  0089                     	;# 
   182  008C                     	;# 
   183  008D                     	;# 
   184  008E                     	;# 
   185  008F                     	;# 
   186  0090                     	;# 
   187  0091                     	;# 
   188  0092                     	;# 
   189  0093                     	;# 
   190  0093                     	;# 
   191  0093                     	;# 
   192  0094                     	;# 
   193  0095                     	;# 
   194  0096                     	;# 
   195  0097                     	;# 
   196  0098                     	;# 
   197  0099                     	;# 
   198  009A                     	;# 
   199  009B                     	;# 
   200  009C                     	;# 
   201  009D                     	;# 
   202  009E                     	;# 
   203  009F                     	;# 
   204  0105                     	;# 
   205  0107                     	;# 
   206  0108                     	;# 
   207  0109                     	;# 
   208  010C                     	;# 
   209  010C                     	;# 
   210  010D                     	;# 
   211  010E                     	;# 
   212  010F                     	;# 
   213  0185                     	;# 
   214  0187                     	;# 
   215  0188                     	;# 
   216  0189                     	;# 
   217  018C                     	;# 
   218  018D                     	;# 
   219                           
   220                           	psect	idataBANK0
   221  076F                     __pidataBANK0:
   222                           
   223                           ;initializer for _index
   224  076F  343F               	retlw	63
   225  0770  3406               	retlw	6
   226  0771  345B               	retlw	91
   227  0772  344F               	retlw	79
   228  0773  3466               	retlw	102
   229  0774  346D               	retlw	109
   230  0775  347D               	retlw	125
   231  0776  3407               	retlw	7
   232  0777  347F               	retlw	127
   233  0778  346F               	retlw	111
   234  0007                     _PORTCbits	set	7
   235  0009                     _PORTEbits	set	9
   236  001E                     _ADRESH	set	30
   237  0001                     _TMR0	set	1
   238  000C                     _PIR1bits	set	12
   239  000B                     _INTCONbits	set	11
   240  001F                     _ADCON0bits	set	31
   241  0009                     _PORTE	set	9
   242  0008                     _PORTD	set	8
   243  0007                     _PORTC	set	7
   244  0005                     _PORTA	set	5
   245  005A                     _T0IF	set	90
   246  0081                     _OPTION_REGbits	set	129
   247  008C                     _PIE1bits	set	140
   248  009F                     _ADCON1bits	set	159
   249  008F                     _OSCCONbits	set	143
   250  0089                     _TRISE	set	137
   251  0088                     _TRISD	set	136
   252  0087                     _TRISC	set	135
   253  0085                     _TRISA	set	133
   254  0189                     _ANSELH	set	393
   255  0188                     _ANSEL	set	392
   256                           
   257                           	psect	cinit
   258  0011                     start_initialization:	
   259                           ; #config settings
   260                           
   261  0011                     __initialization:
   262                           
   263                           ; Initialize objects allocated to BANK0
   264  0011  1383               	bcf	3,7	;select IRP bank0
   265  0012  306F               	movlw	low (__pdataBANK0+10)
   266  0013  00FD               	movwf	btemp+-1
   267  0014  3007               	movlw	high __pidataBANK0
   268  0015  00FE               	movwf	btemp
   269  0016  306F               	movlw	low __pidataBANK0
   270  0017  00FF               	movwf	btemp+1
   271  0018  3065               	movlw	low __pdataBANK0
   272  0019  0084               	movwf	4
   273  001A  120A  118A  2753  120A  118A  	fcall	init_ram0
   274                           
   275                           ; Clear objects allocated to BANK0
   276  001F  01DA               	clrf	__pbssBANK0& (0+127)
   277  0020  01DB               	clrf	(__pbssBANK0+1)& (0+127)
   278  0021  01DC               	clrf	(__pbssBANK0+2)& (0+127)
   279  0022  01DD               	clrf	(__pbssBANK0+3)& (0+127)
   280  0023  01DE               	clrf	(__pbssBANK0+4)& (0+127)
   281  0024  01DF               	clrf	(__pbssBANK0+5)& (0+127)
   282  0025  01E0               	clrf	(__pbssBANK0+6)& (0+127)
   283  0026  01E1               	clrf	(__pbssBANK0+7)& (0+127)
   284  0027  01E2               	clrf	(__pbssBANK0+8)& (0+127)
   285  0028  01E3               	clrf	(__pbssBANK0+9)& (0+127)
   286  0029  01E4               	clrf	(__pbssBANK0+10)& (0+127)
   287                           
   288                           ; Clear objects allocated to COMMON
   289  002A  01F7               	clrf	__pbssCOMMON& (0+127)
   290  002B  01F8               	clrf	(__pbssCOMMON+1)& (0+127)
   291  002C                     end_of_initialization:	
   292                           ;End of C runtime variable initialization code
   293                           
   294  002C                     __end_of__initialization:
   295  002C  0183               	clrf	3
   296  002D  120A  118A  2EEA   	ljmp	_main	;jump to C main() function
   297                           
   298                           	psect	bssCOMMON
   299  0077                     __pbssCOMMON:
   300  0077                     _disp_flag:
   301  0077                     	ds	2
   302                           
   303                           	psect	bssBANK0
   304  005A                     __pbssBANK0:
   305  005A                     _ones:
   306  005A                     	ds	2
   307  005C                     _tens:
   308  005C                     	ds	2
   309  005E                     _huns:
   310  005E                     	ds	2
   311  0060                     _volt_val:
   312  0060                     	ds	2
   313  0062                     _var:
   314  0062                     	ds	2
   315  0064                     _mod:
   316  0064                     	ds	1
   317                           
   318                           	psect	dataBANK0
   319  0065                     __pdataBANK0:
   320  0065                     _index:
   321  0065                     	ds	10
   322                           
   323                           	psect	inittext
   324  074F                     init_fetch0:	
   325                           ;	Called with low address in FSR and high address in W
   326                           
   327  074F  087E               	movf	btemp,w
   328  0750  008A               	movwf	10
   329  0751  087F               	movf	btemp+1,w
   330  0752  0082               	movwf	2
   331  0753                     init_ram0:	
   332                           ;Called with:
   333                           ;	high address of idata address in btemp 
   334                           ;	low address of idata address in btemp+1 
   335                           ;	low address of data in FSR
   336                           ;	high address + 1 of data in btemp-1
   337                           
   338  0753  120A  118A  274F  120A  118A  	fcall	init_fetch0
   339  0758  0080               	movwf	0
   340  0759  0A84               	incf	4,f
   341  075A  0804               	movf	4,w
   342  075B  067D               	xorwf	btemp+-1,w
   343  075C  1903               	btfsc	3,2
   344  075D  3400               	retlw	0
   345  075E  0AFF               	incf	btemp+1,f
   346  075F  1903               	btfsc	3,2
   347  0760  0AFE               	incf	btemp,f
   348  0761  2F53               	goto	init_ram0
   349                           
   350                           	psect	cstackCOMMON
   351  0070                     __pcstackCOMMON:
   352  0070                     ?_setup:
   353  0070                     ?_tmr0_setup:	
   354                           ; 1 bytes @ 0x0
   355                           
   356  0070                     ?_isr:	
   357                           ; 1 bytes @ 0x0
   358                           
   359  0070                     ??_isr:	
   360                           ; 1 bytes @ 0x0
   361                           
   362  0070                     ?_main:	
   363                           ; 1 bytes @ 0x0
   364                           
   365  0070                     ?_digits:	
   366                           ; 1 bytes @ 0x0
   367                           
   368                           
   369                           ; 2 bytes @ 0x0
   370  0070                     	ds	5
   371  0075                     ??_setup:
   372  0075                     ??_tmr0_setup:	
   373                           ; 1 bytes @ 0x5
   374                           
   375  0075                     ??___awdiv:	
   376                           ; 1 bytes @ 0x5
   377                           
   378  0075                     ??___awmod:	
   379                           ; 1 bytes @ 0x5
   380                           
   381  0075                     ?__Umul8_16:	
   382                           ; 1 bytes @ 0x5
   383                           
   384  0075                     __Umul8_16@multiplicand:	
   385                           ; 2 bytes @ 0x5
   386                           
   387                           
   388                           ; 1 bytes @ 0x5
   389  0075                     	ds	2
   390                           
   391                           	psect	cstackBANK0
   392  0020                     __pcstackBANK0:
   393  0020                     ??__Umul8_16:
   394  0020                     ?___awdiv:	
   395                           ; 1 bytes @ 0x0
   396                           
   397  0020                     ?___awmod:	
   398                           ; 2 bytes @ 0x0
   399                           
   400  0020                     ?___xxtofl:	
   401                           ; 2 bytes @ 0x0
   402                           
   403  0020                     ___awdiv@divisor:	
   404                           ; 4 bytes @ 0x0
   405                           
   406  0020                     ___awmod@divisor:	
   407                           ; 2 bytes @ 0x0
   408                           
   409  0020                     ___xxtofl@val:	
   410                           ; 2 bytes @ 0x0
   411                           
   412                           
   413                           ; 4 bytes @ 0x0
   414  0020                     	ds	2
   415  0022                     ___awdiv@dividend:
   416  0022                     ___awmod@dividend:	
   417                           ; 2 bytes @ 0x2
   418                           
   419  0022                     __Umul8_16@product:	
   420                           ; 2 bytes @ 0x2
   421                           
   422                           
   423                           ; 2 bytes @ 0x2
   424  0022                     	ds	2
   425  0024                     ??___xxtofl:
   426  0024                     ___awdiv@counter:	
   427                           ; 1 bytes @ 0x4
   428                           
   429  0024                     ___awmod@counter:	
   430                           ; 1 bytes @ 0x4
   431                           
   432  0024                     __Umul8_16@word_mpld:	
   433                           ; 1 bytes @ 0x4
   434                           
   435                           
   436                           ; 2 bytes @ 0x4
   437  0024                     	ds	1
   438  0025                     ___awdiv@sign:
   439  0025                     ___awmod@sign:	
   440                           ; 1 bytes @ 0x5
   441                           
   442                           
   443                           ; 1 bytes @ 0x5
   444  0025                     	ds	1
   445  0026                     __Umul8_16@multiplier:
   446  0026                     ___awdiv@quotient:	
   447                           ; 1 bytes @ 0x6
   448                           
   449                           
   450                           ; 2 bytes @ 0x6
   451  0026                     	ds	2
   452  0028                     ___xxtofl@sign:
   453                           
   454                           ; 1 bytes @ 0x8
   455  0028                     	ds	1
   456  0029                     ___xxtofl@exp:
   457                           
   458                           ; 1 bytes @ 0x9
   459  0029                     	ds	1
   460  002A                     ___xxtofl@arg:
   461                           
   462                           ; 4 bytes @ 0xA
   463  002A                     	ds	4
   464  002E                     ?___flmul:
   465  002E                     ___flmul@b:	
   466                           ; 4 bytes @ 0xE
   467                           
   468                           
   469                           ; 4 bytes @ 0xE
   470  002E                     	ds	4
   471  0032                     ___flmul@a:
   472                           
   473                           ; 4 bytes @ 0x12
   474  0032                     	ds	4
   475  0036                     ??___flmul:
   476                           
   477                           ; 1 bytes @ 0x16
   478  0036                     	ds	5
   479  003B                     ___flmul@sign:
   480                           
   481                           ; 1 bytes @ 0x1B
   482  003B                     	ds	1
   483  003C                     ___flmul@aexp:
   484                           
   485                           ; 1 bytes @ 0x1C
   486  003C                     	ds	1
   487  003D                     ___flmul@grs:
   488                           
   489                           ; 4 bytes @ 0x1D
   490  003D                     	ds	4
   491  0041                     ___flmul@bexp:
   492                           
   493                           ; 1 bytes @ 0x21
   494  0041                     	ds	1
   495  0042                     ___flmul@prod:
   496                           
   497                           ; 4 bytes @ 0x22
   498  0042                     	ds	4
   499  0046                     ___flmul@temp:
   500                           
   501                           ; 2 bytes @ 0x26
   502  0046                     	ds	2
   503  0048                     ?___fltol:
   504  0048                     ___fltol@f1:	
   505                           ; 4 bytes @ 0x28
   506                           
   507                           
   508                           ; 4 bytes @ 0x28
   509  0048                     	ds	4
   510  004C                     ??___fltol:
   511                           
   512                           ; 1 bytes @ 0x2C
   513  004C                     	ds	5
   514  0051                     ___fltol@sign1:
   515                           
   516                           ; 1 bytes @ 0x31
   517  0051                     	ds	1
   518  0052                     ___fltol@exp1:
   519                           
   520                           ; 1 bytes @ 0x32
   521  0052                     	ds	1
   522  0053                     ??_digits:
   523                           
   524                           ; 1 bytes @ 0x33
   525  0053                     	ds	2
   526  0055                     _digits$934:
   527                           
   528                           ; 4 bytes @ 0x35
   529  0055                     	ds	4
   530  0059                     ??_main:
   531                           
   532                           ; 1 bytes @ 0x39
   533  0059                     	ds	1
   534                           
   535                           	psect	maintext
   536  06EA                     __pmaintext:	
   537 ;;
   538 ;;Main: autosize = 0, tempsize = 1, incstack = 0, save=0
   539 ;;
   540 ;; *************** function _main *****************
   541 ;; Defined at:
   542 ;;		line 163 in file "lab08_main-20168.c"
   543 ;; Parameters:    Size  Location     Type
   544 ;;		None
   545 ;; Auto vars:     Size  Location     Type
   546 ;;		None
   547 ;; Return value:  Size  Location     Type
   548 ;;                  1    wreg      void 
   549 ;; Registers used:
   550 ;;		wreg, status,2, status,0, btemp+1, pclath, cstack
   551 ;; Tracked objects:
   552 ;;		On entry : B00/0
   553 ;;		On exit  : 0/0
   554 ;;		Unchanged: 0/0
   555 ;; Data sizes:     COMMON   BANK0   BANK1   BANK3   BANK2
   556 ;;      Params:         0       0       0       0       0
   557 ;;      Locals:         0       0       0       0       0
   558 ;;      Temps:          0       1       0       0       0
   559 ;;      Totals:         0       1       0       0       0
   560 ;;Total ram usage:        1 bytes
   561 ;; Hardware stack levels required when called: 4
   562 ;; This function calls:
   563 ;;		_digits
   564 ;;		_setup
   565 ;;		_tmr0_setup
   566 ;; This function is called by:
   567 ;;		Startup code after reset
   568 ;; This function uses a non-reentrant model
   569 ;;
   570                           
   571  06EA                     _main:	
   572                           ;psect for function _main
   573                           
   574  06EA                     l1815:	
   575                           ;incstack = 0
   576                           ; Regs used in _main: [wreg+status,2+status,0+btemp+1+pclath+cstack]
   577                           
   578                           
   579                           ;lab08_main-20168.c: 165:     setup();
   580  06EA  120A  118A  26AA  120A  118A  	fcall	_setup
   581                           
   582                           ;lab08_main-20168.c: 166:     tmr0_setup();
   583  06EF  120A  118A  2762  120A  118A  	fcall	_tmr0_setup
   584  06F4                     l1817:
   585                           
   586                           ;lab08_main-20168.c: 170:         digits();
   587  06F4  120A  118A  244D  120A  118A  	fcall	_digits
   588  06F9                     l1819:
   589                           
   590                           ;lab08_main-20168.c: 171:         if (ADCON0bits.GO == 0){
   591  06F9  1283               	bcf	3,5	;RP0=0, select bank0
   592  06FA  1303               	bcf	3,6	;RP1=0, select bank0
   593  06FB  189F               	btfsc	31,1	;volatile
   594  06FC  2EFE               	goto	u2601
   595  06FD  2EFF               	goto	u2600
   596  06FE                     u2601:
   597  06FE  2EF4               	goto	l1817
   598  06FF                     u2600:
   599  06FF                     l1821:
   600                           
   601                           ;lab08_main-20168.c: 172:             if (ADCON0bits.CHS == 0){
   602  06FF  0C1F               	rrf	31,w	;volatile
   603  0700  00D9               	movwf	??_main
   604  0701  0C59               	rrf	??_main,w
   605  0702  390F               	andlw	15
   606  0703  3A00               	xorlw	0
   607  0704  1D03               	skipz
   608  0705  2F07               	goto	u2611
   609  0706  2F08               	goto	u2610
   610  0707                     u2611:
   611  0707  2F0D               	goto	l1825
   612  0708                     u2610:
   613  0708                     l1823:
   614                           
   615                           ;lab08_main-20168.c: 173:                 ADCON0bits.CHS = 0b0001;
   616  0708  081F               	movf	31,w	;volatile
   617  0709  39C3               	andlw	-61
   618  070A  3804               	iorlw	4
   619  070B  009F               	movwf	31	;volatile
   620                           
   621                           ;lab08_main-20168.c: 174:             }
   622  070C  2F18               	goto	l1829
   623  070D                     l1825:
   624  070D  0C1F               	rrf	31,w	;volatile
   625  070E  00D9               	movwf	??_main
   626  070F  0C59               	rrf	??_main,w
   627  0710  390F               	andlw	15
   628  0711  3A01               	xorlw	1
   629  0712  1D03               	skipz
   630  0713  2F15               	goto	u2621
   631  0714  2F16               	goto	u2620
   632  0715                     u2621:
   633  0715  2F18               	goto	l1829
   634  0716                     u2620:
   635  0716                     l1827:
   636                           
   637                           ;lab08_main-20168.c: 176:                 ADCON0bits.CHS = 0b0000;
   638  0716  30C3               	movlw	-61
   639  0717  059F               	andwf	31,f	;volatile
   640  0718                     l1829:
   641                           
   642                           ;lab08_main-20168.c: 178:             _delay((unsigned long)((40)*(4000000/4000000.0)));
   643  0718  300C               	movlw	12
   644  0719  1283               	bcf	3,5	;RP0=0, select bank0
   645  071A  1303               	bcf	3,6	;RP1=0, select bank0
   646  071B  00D9               	movwf	??_main
   647  071C                     u2637:
   648  071C  0BD9               	decfsz	??_main,f
   649  071D  2F1C               	goto	u2637
   650  071E  0000               	nop
   651  071F                     l1831:
   652                           
   653                           ;lab08_main-20168.c: 179:             ADCON0bits.GO = 1;
   654  071F  1283               	bcf	3,5	;RP0=0, select bank0
   655  0720  1303               	bcf	3,6	;RP1=0, select bank0
   656  0721  149F               	bsf	31,1	;volatile
   657  0722  2EF4               	goto	l1817
   658  0723  120A  118A  280E   	ljmp	start
   659  0726                     __end_of_main:
   660                           
   661                           	psect	text1
   662  0762                     __ptext1:	
   663 ;; *************** function _tmr0_setup *****************
   664 ;; Defined at:
   665 ;;		line 103 in file "lab08_main-20168.c"
   666 ;; Parameters:    Size  Location     Type
   667 ;;		None
   668 ;; Auto vars:     Size  Location     Type
   669 ;;		None
   670 ;; Return value:  Size  Location     Type
   671 ;;                  1    wreg      void 
   672 ;; Registers used:
   673 ;;		wreg
   674 ;; Tracked objects:
   675 ;;		On entry : 0/0
   676 ;;		On exit  : 0/0
   677 ;;		Unchanged: 0/0
   678 ;; Data sizes:     COMMON   BANK0   BANK1   BANK3   BANK2
   679 ;;      Params:         0       0       0       0       0
   680 ;;      Locals:         0       0       0       0       0
   681 ;;      Temps:          0       0       0       0       0
   682 ;;      Totals:         0       0       0       0       0
   683 ;;Total ram usage:        0 bytes
   684 ;; Hardware stack levels used: 1
   685 ;; Hardware stack levels required when called: 1
   686 ;; This function calls:
   687 ;;		Nothing
   688 ;; This function is called by:
   689 ;;		_main
   690 ;; This function uses a non-reentrant model
   691 ;;
   692                           
   693  0762                     _tmr0_setup:	
   694                           ;psect for function _tmr0_setup
   695                           
   696  0762                     l1043:	
   697                           ;incstack = 0
   698                           ; Regs used in _tmr0_setup: [wreg]
   699                           
   700                           
   701                           ;lab08_main-20168.c: 104:     OPTION_REGbits.T0CS = 0;
   702  0762  1683               	bsf	3,5	;RP0=1, select bank1
   703  0763  1303               	bcf	3,6	;RP1=0, select bank1
   704  0764  1281               	bcf	1,5	;volatile
   705                           
   706                           ;lab08_main-20168.c: 105:     OPTION_REGbits.PSA = 0;
   707  0765  1181               	bcf	1,3	;volatile
   708                           
   709                           ;lab08_main-20168.c: 106:     OPTION_REGbits.PS0 = 1;
   710  0766  1401               	bsf	1,0	;volatile
   711                           
   712                           ;lab08_main-20168.c: 107:     OPTION_REGbits.PS1 = 1;
   713  0767  1481               	bsf	1,1	;volatile
   714                           
   715                           ;lab08_main-20168.c: 108:     OPTION_REGbits.PS2 = 1;
   716  0768  1501               	bsf	1,2	;volatile
   717                           
   718                           ;lab08_main-20168.c: 110:     INTCONbits.T0IF = 0;
   719  0769  110B               	bcf	11,2	;volatile
   720  076A                     l1045:
   721                           
   722                           ;lab08_main-20168.c: 111:     TMR0 = 248;
   723  076A  30F8               	movlw	248
   724  076B  1283               	bcf	3,5	;RP0=0, select bank0
   725  076C  1303               	bcf	3,6	;RP1=0, select bank0
   726  076D  0081               	movwf	1	;volatile
   727  076E                     l68:
   728  076E  0008               	return
   729  076F                     __end_of_tmr0_setup:
   730                           
   731                           	psect	text2
   732  06AA                     __ptext2:	
   733 ;; *************** function _setup *****************
   734 ;; Defined at:
   735 ;;		line 64 in file "lab08_main-20168.c"
   736 ;; Parameters:    Size  Location     Type
   737 ;;		None
   738 ;; Auto vars:     Size  Location     Type
   739 ;;		None
   740 ;; Return value:  Size  Location     Type
   741 ;;                  1    wreg      void 
   742 ;; Registers used:
   743 ;;		wreg, status,2, status,0
   744 ;; Tracked objects:
   745 ;;		On entry : 0/0
   746 ;;		On exit  : 0/0
   747 ;;		Unchanged: 0/0
   748 ;; Data sizes:     COMMON   BANK0   BANK1   BANK3   BANK2
   749 ;;      Params:         0       0       0       0       0
   750 ;;      Locals:         0       0       0       0       0
   751 ;;      Temps:          1       0       0       0       0
   752 ;;      Totals:         1       0       0       0       0
   753 ;;Total ram usage:        1 bytes
   754 ;; Hardware stack levels used: 1
   755 ;; Hardware stack levels required when called: 1
   756 ;; This function calls:
   757 ;;		Nothing
   758 ;; This function is called by:
   759 ;;		_main
   760 ;; This function uses a non-reentrant model
   761 ;;
   762                           
   763  06AA                     _setup:	
   764                           ;psect for function _setup
   765                           
   766  06AA                     l1007:	
   767                           ;incstack = 0
   768                           ; Regs used in _setup: [wreg+status,2+status,0]
   769                           
   770                           
   771                           ;lab08_main-20168.c: 65:     ANSEL = 0b00000011;
   772  06AA  3003               	movlw	3
   773  06AB  1683               	bsf	3,5	;RP0=1, select bank3
   774  06AC  1703               	bsf	3,6	;RP1=1, select bank3
   775  06AD  0088               	movwf	8	;volatile
   776  06AE                     l1009:
   777                           
   778                           ;lab08_main-20168.c: 66:     ANSELH = 0;
   779  06AE  0189               	clrf	9	;volatile
   780  06AF                     l1011:
   781                           
   782                           ;lab08_main-20168.c: 68:     TRISA = 0b00000011;
   783  06AF  3003               	movlw	3
   784  06B0  1683               	bsf	3,5	;RP0=1, select bank1
   785  06B1  1303               	bcf	3,6	;RP1=0, select bank1
   786  06B2  0085               	movwf	5	;volatile
   787                           
   788                           ;lab08_main-20168.c: 69:     PORTA = 0;
   789  06B3  1283               	bcf	3,5	;RP0=0, select bank0
   790  06B4  1303               	bcf	3,6	;RP1=0, select bank0
   791  06B5  0185               	clrf	5	;volatile
   792                           
   793                           ;lab08_main-20168.c: 71:     TRISC = 0;
   794  06B6  1683               	bsf	3,5	;RP0=1, select bank1
   795  06B7  1303               	bcf	3,6	;RP1=0, select bank1
   796  06B8  0187               	clrf	7	;volatile
   797                           
   798                           ;lab08_main-20168.c: 72:     TRISD = 0;
   799  06B9  0188               	clrf	8	;volatile
   800                           
   801                           ;lab08_main-20168.c: 73:     TRISE = 0;
   802  06BA  0189               	clrf	9	;volatile
   803                           
   804                           ;lab08_main-20168.c: 74:     PORTC = 0;
   805  06BB  1283               	bcf	3,5	;RP0=0, select bank0
   806  06BC  1303               	bcf	3,6	;RP1=0, select bank0
   807  06BD  0187               	clrf	7	;volatile
   808                           
   809                           ;lab08_main-20168.c: 75:     PORTD = 0;
   810  06BE  0188               	clrf	8	;volatile
   811                           
   812                           ;lab08_main-20168.c: 76:     PORTE = 0;
   813  06BF  0189               	clrf	9	;volatile
   814  06C0                     l1013:
   815                           
   816                           ;lab08_main-20168.c: 79:     OSCCONbits.IRCF = 0b0110;
   817  06C0  1683               	bsf	3,5	;RP0=1, select bank1
   818  06C1  1303               	bcf	3,6	;RP1=0, select bank1
   819  06C2  080F               	movf	15,w	;volatile
   820  06C3  398F               	andlw	-113
   821  06C4  3860               	iorlw	96
   822  06C5  008F               	movwf	15	;volatile
   823  06C6                     l1015:
   824                           
   825                           ;lab08_main-20168.c: 80:     OSCCONbits.SCS = 1;
   826  06C6  140F               	bsf	15,0	;volatile
   827  06C7                     l1017:
   828                           
   829                           ;lab08_main-20168.c: 83:     ADCON0bits.ADCS = 0b01;
   830  06C7  1283               	bcf	3,5	;RP0=0, select bank0
   831  06C8  1303               	bcf	3,6	;RP1=0, select bank0
   832  06C9  081F               	movf	31,w	;volatile
   833  06CA  393F               	andlw	-193
   834  06CB  3840               	iorlw	64
   835  06CC  009F               	movwf	31	;volatile
   836  06CD                     l1019:
   837                           
   838                           ;lab08_main-20168.c: 85:     ADCON1bits.VCFG0 = 0;
   839  06CD  1683               	bsf	3,5	;RP0=1, select bank1
   840  06CE  1303               	bcf	3,6	;RP1=0, select bank1
   841  06CF  121F               	bcf	31,4	;volatile
   842  06D0                     l1021:
   843                           
   844                           ;lab08_main-20168.c: 86:     ADCON1bits.VCFG1 = 1;
   845  06D0  169F               	bsf	31,5	;volatile
   846  06D1                     l1023:
   847                           
   848                           ;lab08_main-20168.c: 88:     ADCON0bits.CHS = 0b0000;
   849  06D1  30C3               	movlw	-61
   850  06D2  1283               	bcf	3,5	;RP0=0, select bank0
   851  06D3  1303               	bcf	3,6	;RP1=0, select bank0
   852  06D4  059F               	andwf	31,f	;volatile
   853  06D5                     l1025:
   854                           
   855                           ;lab08_main-20168.c: 89:     ADCON1bits.ADFM = 0;
   856  06D5  1683               	bsf	3,5	;RP0=1, select bank1
   857  06D6  1303               	bcf	3,6	;RP1=0, select bank1
   858  06D7  139F               	bcf	31,7	;volatile
   859  06D8                     l1027:
   860                           
   861                           ;lab08_main-20168.c: 90:     ADCON0bits.ADON = 1;
   862  06D8  1283               	bcf	3,5	;RP0=0, select bank0
   863  06D9  1303               	bcf	3,6	;RP1=0, select bank0
   864  06DA  141F               	bsf	31,0	;volatile
   865  06DB                     l1029:
   866                           
   867                           ;lab08_main-20168.c: 91:     _delay((unsigned long)((40)*(4000000/4000000.0)));
   868  06DB  300D               	movlw	13
   869  06DC  00F5               	movwf	??_setup
   870  06DD                     u2647:
   871  06DD  0BF5               	decfsz	??_setup,f
   872  06DE  2EDD               	goto	u2647
   873  06DF                     l1031:
   874                           
   875                           ;lab08_main-20168.c: 94:     INTCONbits.GIE = 1;
   876  06DF  178B               	bsf	11,7	;volatile
   877  06E0                     l1033:
   878                           
   879                           ;lab08_main-20168.c: 95:     INTCONbits.PEIE = 1;
   880  06E0  170B               	bsf	11,6	;volatile
   881  06E1                     l1035:
   882                           
   883                           ;lab08_main-20168.c: 96:     INTCONbits.T0IE = 1;
   884  06E1  168B               	bsf	11,5	;volatile
   885  06E2                     l1037:
   886                           
   887                           ;lab08_main-20168.c: 97:     INTCONbits.T0IF = 0;
   888  06E2  110B               	bcf	11,2	;volatile
   889  06E3                     l1039:
   890                           
   891                           ;lab08_main-20168.c: 98:     PIE1bits.ADIE = 1;
   892  06E3  1683               	bsf	3,5	;RP0=1, select bank1
   893  06E4  1303               	bcf	3,6	;RP1=0, select bank1
   894  06E5  170C               	bsf	12,6	;volatile
   895  06E6                     l1041:
   896                           
   897                           ;lab08_main-20168.c: 99:     PIR1bits.ADIF = 0;
   898  06E6  1283               	bcf	3,5	;RP0=0, select bank0
   899  06E7  1303               	bcf	3,6	;RP1=0, select bank0
   900  06E8  130C               	bcf	12,6	;volatile
   901  06E9                     l65:
   902  06E9  0008               	return
   903  06EA                     __end_of_setup:
   904                           
   905                           	psect	text3
   906  044D                     __ptext3:	
   907 ;; *************** function _digits *****************
   908 ;; Defined at:
   909 ;;		line 115 in file "lab08_main-20168.c"
   910 ;; Parameters:    Size  Location     Type
   911 ;;		None
   912 ;; Auto vars:     Size  Location     Type
   913 ;;		None
   914 ;; Return value:  Size  Location     Type
   915 ;;                  2   70[None  ] int 
   916 ;; Registers used:
   917 ;;		wreg, status,2, status,0, btemp+1, pclath, cstack
   918 ;; Tracked objects:
   919 ;;		On entry : 0/0
   920 ;;		On exit  : 0/0
   921 ;;		Unchanged: 0/0
   922 ;; Data sizes:     COMMON   BANK0   BANK1   BANK3   BANK2
   923 ;;      Params:         0       0       0       0       0
   924 ;;      Locals:         0       4       0       0       0
   925 ;;      Temps:          0       2       0       0       0
   926 ;;      Totals:         0       6       0       0       0
   927 ;;Total ram usage:        6 bytes
   928 ;; Hardware stack levels used: 1
   929 ;; Hardware stack levels required when called: 3
   930 ;; This function calls:
   931 ;;		___awdiv
   932 ;;		___awmod
   933 ;;		___flmul
   934 ;;		___fltol
   935 ;;		___xxtofl
   936 ;; This function is called by:
   937 ;;		_main
   938 ;; This function uses a non-reentrant model
   939 ;;
   940                           
   941  044D                     _digits:	
   942                           ;psect for function _digits
   943                           
   944  044D                     l1805:	
   945                           ;incstack = 0
   946                           ; Regs used in _digits: [wreg+status,2+status,0+btemp+1+pclath+cstack]
   947                           
   948                           
   949                           ;lab08_main-20168.c: 116:     volt_val = var*((float)5/255)*(100);
   950  044D  1283               	bcf	3,5	;RP0=0, select bank0
   951  044E  1303               	bcf	3,6	;RP1=0, select bank0
   952  044F  0862               	movf	_var,w
   953  0450  00A0               	movwf	___xxtofl@val
   954  0451  0863               	movf	_var+1,w
   955  0452  00A1               	movwf	___xxtofl@val+1
   956  0453  3000               	movlw	0
   957  0454  1BA1               	btfsc	___xxtofl@val+1,7
   958  0455  30FF               	movlw	255
   959  0456  00A2               	movwf	___xxtofl@val+2
   960  0457  00A3               	movwf	___xxtofl@val+3
   961  0458  3001               	movlw	1
   962  0459  120A  118A  2391  120A  118A  	fcall	___xxtofl
   963  045E  1283               	bcf	3,5	;RP0=0, select bank0
   964  045F  1303               	bcf	3,6	;RP1=0, select bank0
   965  0460  0823               	movf	?___xxtofl+3,w
   966  0461  00B5               	movwf	___flmul@a+3
   967  0462  0822               	movf	?___xxtofl+2,w
   968  0463  00B4               	movwf	___flmul@a+2
   969  0464  0821               	movf	?___xxtofl+1,w
   970  0465  00B3               	movwf	___flmul@a+1
   971  0466  0820               	movf	?___xxtofl,w
   972  0467  00B2               	movwf	___flmul@a
   973  0468  303C               	movlw	60
   974  0469  00B1               	movwf	___flmul@b+3
   975  046A  30A0               	movlw	160
   976  046B  00B0               	movwf	___flmul@b+2
   977  046C  30A0               	movlw	160
   978  046D  00AF               	movwf	___flmul@b+1
   979  046E  30A1               	movlw	161
   980  046F  00AE               	movwf	___flmul@b
   981  0470  120A  118A  2030  120A  118A  	fcall	___flmul
   982  0475  1283               	bcf	3,5	;RP0=0, select bank0
   983  0476  1303               	bcf	3,6	;RP1=0, select bank0
   984  0477  0831               	movf	?___flmul+3,w
   985  0478  00D8               	movwf	_digits$934+3
   986  0479  0830               	movf	?___flmul+2,w
   987  047A  00D7               	movwf	_digits$934+2
   988  047B  082F               	movf	?___flmul+1,w
   989  047C  00D6               	movwf	_digits$934+1
   990  047D  082E               	movf	?___flmul,w
   991  047E  00D5               	movwf	_digits$934
   992                           
   993                           ;lab08_main-20168.c: 116:     volt_val = var*((float)5/255)*(100);
   994  047F  0858               	movf	_digits$934+3,w
   995  0480  00B5               	movwf	___flmul@a+3
   996  0481  0857               	movf	_digits$934+2,w
   997  0482  00B4               	movwf	___flmul@a+2
   998  0483  0856               	movf	_digits$934+1,w
   999  0484  00B3               	movwf	___flmul@a+1
  1000  0485  0855               	movf	_digits$934,w
  1001  0486  00B2               	movwf	___flmul@a
  1002  0487  3042               	movlw	66
  1003  0488  00B1               	movwf	___flmul@b+3
  1004  0489  30C8               	movlw	200
  1005  048A  00B0               	movwf	___flmul@b+2
  1006  048B  3000               	movlw	0
  1007  048C  00AF               	movwf	___flmul@b+1
  1008  048D  3000               	movlw	0
  1009  048E  00AE               	movwf	___flmul@b
  1010  048F  120A  118A  2030  120A  118A  	fcall	___flmul
  1011  0494  1283               	bcf	3,5	;RP0=0, select bank0
  1012  0495  1303               	bcf	3,6	;RP1=0, select bank0
  1013  0496  0831               	movf	?___flmul+3,w
  1014  0497  00CB               	movwf	___fltol@f1+3
  1015  0498  0830               	movf	?___flmul+2,w
  1016  0499  00CA               	movwf	___fltol@f1+2
  1017  049A  082F               	movf	?___flmul+1,w
  1018  049B  00C9               	movwf	___fltol@f1+1
  1019  049C  082E               	movf	?___flmul,w
  1020  049D  00C8               	movwf	___fltol@f1
  1021  049E  120A  118A  24FC  120A  118A  	fcall	___fltol
  1022  04A3  1283               	bcf	3,5	;RP0=0, select bank0
  1023  04A4  1303               	bcf	3,6	;RP1=0, select bank0
  1024  04A5  0849               	movf	?___fltol+1,w
  1025  04A6  00E1               	movwf	_volt_val+1
  1026  04A7  0848               	movf	?___fltol,w
  1027  04A8  00E0               	movwf	_volt_val
  1028  04A9                     l1807:
  1029                           
  1030                           ;lab08_main-20168.c: 117:     mod = volt_val%100;
  1031  04A9  3064               	movlw	100
  1032  04AA  00A0               	movwf	___awmod@divisor
  1033  04AB  3000               	movlw	0
  1034  04AC  00A1               	movwf	___awmod@divisor+1
  1035  04AD  0861               	movf	_volt_val+1,w
  1036  04AE  00A3               	movwf	___awmod@dividend+1
  1037  04AF  0860               	movf	_volt_val,w
  1038  04B0  00A2               	movwf	___awmod@dividend
  1039  04B1  120A  118A  264F  120A  118A  	fcall	___awmod
  1040  04B6  1283               	bcf	3,5	;RP0=0, select bank0
  1041  04B7  1303               	bcf	3,6	;RP1=0, select bank0
  1042  04B8  0820               	movf	?___awmod,w
  1043  04B9  00D3               	movwf	??_digits
  1044  04BA  0853               	movf	??_digits,w
  1045  04BB  00E4               	movwf	_mod
  1046  04BC                     l1809:
  1047                           
  1048                           ;lab08_main-20168.c: 118:     huns = volt_val/100;
  1049  04BC  3064               	movlw	100
  1050  04BD  00A0               	movwf	___awdiv@divisor
  1051  04BE  3000               	movlw	0
  1052  04BF  00A1               	movwf	___awdiv@divisor+1
  1053  04C0  0861               	movf	_volt_val+1,w
  1054  04C1  00A3               	movwf	___awdiv@dividend+1
  1055  04C2  0860               	movf	_volt_val,w
  1056  04C3  00A2               	movwf	___awdiv@dividend
  1057  04C4  120A  118A  25E6  120A  118A  	fcall	___awdiv
  1058  04C9  1283               	bcf	3,5	;RP0=0, select bank0
  1059  04CA  1303               	bcf	3,6	;RP1=0, select bank0
  1060  04CB  0821               	movf	?___awdiv+1,w
  1061  04CC  00DF               	movwf	_huns+1
  1062  04CD  0820               	movf	?___awdiv,w
  1063  04CE  00DE               	movwf	_huns
  1064  04CF                     l1811:
  1065                           
  1066                           ;lab08_main-20168.c: 119:     tens = mod/10;
  1067  04CF  300A               	movlw	10
  1068  04D0  00A0               	movwf	___awdiv@divisor
  1069  04D1  3000               	movlw	0
  1070  04D2  00A1               	movwf	___awdiv@divisor+1
  1071  04D3  0864               	movf	_mod,w
  1072  04D4  00D3               	movwf	??_digits
  1073  04D5  01D4               	clrf	??_digits+1
  1074  04D6  0853               	movf	??_digits,w
  1075  04D7  00A2               	movwf	___awdiv@dividend
  1076  04D8  0854               	movf	??_digits+1,w
  1077  04D9  00A3               	movwf	___awdiv@dividend+1
  1078  04DA  120A  118A  25E6  120A  118A  	fcall	___awdiv
  1079  04DF  1283               	bcf	3,5	;RP0=0, select bank0
  1080  04E0  1303               	bcf	3,6	;RP1=0, select bank0
  1081  04E1  0821               	movf	?___awdiv+1,w
  1082  04E2  00DD               	movwf	_tens+1
  1083  04E3  0820               	movf	?___awdiv,w
  1084  04E4  00DC               	movwf	_tens
  1085  04E5                     l1813:
  1086                           
  1087                           ;lab08_main-20168.c: 120:     ones = mod%10;
  1088  04E5  300A               	movlw	10
  1089  04E6  00A0               	movwf	___awmod@divisor
  1090  04E7  3000               	movlw	0
  1091  04E8  00A1               	movwf	___awmod@divisor+1
  1092  04E9  0864               	movf	_mod,w
  1093  04EA  00D3               	movwf	??_digits
  1094  04EB  01D4               	clrf	??_digits+1
  1095  04EC  0853               	movf	??_digits,w
  1096  04ED  00A2               	movwf	___awmod@dividend
  1097  04EE  0854               	movf	??_digits+1,w
  1098  04EF  00A3               	movwf	___awmod@dividend+1
  1099  04F0  120A  118A  264F  120A  118A  	fcall	___awmod
  1100  04F5  1283               	bcf	3,5	;RP0=0, select bank0
  1101  04F6  1303               	bcf	3,6	;RP1=0, select bank0
  1102  04F7  0821               	movf	?___awmod+1,w
  1103  04F8  00DB               	movwf	_ones+1
  1104  04F9  0820               	movf	?___awmod,w
  1105  04FA  00DA               	movwf	_ones
  1106  04FB                     l71:
  1107  04FB  0008               	return
  1108  04FC                     __end_of_digits:
  1109                           
  1110                           	psect	text4
  1111  0391                     __ptext4:	
  1112 ;; *************** function ___xxtofl *****************
  1113 ;; Defined at:
  1114 ;;		line 10 in file "C:\Program Files\Microchip\xc8\v2.35\pic\sources\c90\common\xxtofl.c"
  1115 ;; Parameters:    Size  Location     Type
  1116 ;;  sign            1    wreg     unsigned char 
  1117 ;;  val             4    0[BANK0 ] long 
  1118 ;; Auto vars:     Size  Location     Type
  1119 ;;  sign            1    8[BANK0 ] unsigned char 
  1120 ;;  arg             4   10[BANK0 ] unsigned long 
  1121 ;;  exp             1    9[BANK0 ] unsigned char 
  1122 ;; Return value:  Size  Location     Type
  1123 ;;                  4    0[BANK0 ] unsigned char 
  1124 ;; Registers used:
  1125 ;;		wreg, status,2, status,0
  1126 ;; Tracked objects:
  1127 ;;		On entry : 0/0
  1128 ;;		On exit  : 0/0
  1129 ;;		Unchanged: 0/0
  1130 ;; Data sizes:     COMMON   BANK0   BANK1   BANK3   BANK2
  1131 ;;      Params:         0       4       0       0       0
  1132 ;;      Locals:         0       6       0       0       0
  1133 ;;      Temps:          0       4       0       0       0
  1134 ;;      Totals:         0      14       0       0       0
  1135 ;;Total ram usage:       14 bytes
  1136 ;; Hardware stack levels used: 1
  1137 ;; Hardware stack levels required when called: 1
  1138 ;; This function calls:
  1139 ;;		Nothing
  1140 ;; This function is called by:
  1141 ;;		_digits
  1142 ;; This function uses a non-reentrant model
  1143 ;;
  1144                           
  1145  0391                     ___xxtofl:	
  1146                           ;psect for function ___xxtofl
  1147                           
  1148                           
  1149                           ;incstack = 0
  1150                           ; Regs used in ___xxtofl: [wreg+status,2+status,0]
  1151                           ;___xxtofl@sign stored from wreg
  1152  0391  1283               	bcf	3,5	;RP0=0, select bank0
  1153  0392  1303               	bcf	3,6	;RP1=0, select bank0
  1154  0393  00A8               	movwf	___xxtofl@sign
  1155  0394                     l1761:
  1156  0394  0828               	movf	___xxtofl@sign,w
  1157  0395  1903               	btfsc	3,2
  1158  0396  2B98               	goto	u2461
  1159  0397  2B99               	goto	u2460
  1160  0398                     u2461:
  1161  0398  2BAD               	goto	l1767
  1162  0399                     u2460:
  1163  0399                     l1763:
  1164  0399  1FA3               	btfss	___xxtofl@val+3,7
  1165  039A  2B9C               	goto	u2471
  1166  039B  2B9D               	goto	u2470
  1167  039C                     u2471:
  1168  039C  2BAD               	goto	l1767
  1169  039D                     u2470:
  1170  039D                     l1765:
  1171  039D  0920               	comf	___xxtofl@val,w
  1172  039E  00AA               	movwf	___xxtofl@arg
  1173  039F  0921               	comf	___xxtofl@val+1,w
  1174  03A0  00AB               	movwf	___xxtofl@arg+1
  1175  03A1  0922               	comf	___xxtofl@val+2,w
  1176  03A2  00AC               	movwf	___xxtofl@arg+2
  1177  03A3  0923               	comf	___xxtofl@val+3,w
  1178  03A4  00AD               	movwf	___xxtofl@arg+3
  1179  03A5  0AAA               	incf	___xxtofl@arg,f
  1180  03A6  1903               	skipnz
  1181  03A7  0AAB               	incf	___xxtofl@arg+1,f
  1182  03A8  1903               	skipnz
  1183  03A9  0AAC               	incf	___xxtofl@arg+2,f
  1184  03AA  1903               	skipnz
  1185  03AB  0AAD               	incf	___xxtofl@arg+3,f
  1186  03AC  2BB5               	goto	l618
  1187  03AD                     l1767:
  1188  03AD  0823               	movf	___xxtofl@val+3,w
  1189  03AE  00AD               	movwf	___xxtofl@arg+3
  1190  03AF  0822               	movf	___xxtofl@val+2,w
  1191  03B0  00AC               	movwf	___xxtofl@arg+2
  1192  03B1  0821               	movf	___xxtofl@val+1,w
  1193  03B2  00AB               	movwf	___xxtofl@arg+1
  1194  03B3  0820               	movf	___xxtofl@val,w
  1195  03B4  00AA               	movwf	___xxtofl@arg
  1196  03B5                     l618:
  1197  03B5  0823               	movf	___xxtofl@val+3,w
  1198  03B6  0422               	iorwf	___xxtofl@val+2,w
  1199  03B7  0421               	iorwf	___xxtofl@val+1,w
  1200  03B8  0420               	iorwf	___xxtofl@val,w
  1201  03B9  1D03               	skipz
  1202  03BA  2BBC               	goto	u2481
  1203  03BB  2BBD               	goto	u2480
  1204  03BC                     u2481:
  1205  03BC  2BC6               	goto	l1773
  1206  03BD                     u2480:
  1207  03BD                     l1769:
  1208  03BD  3000               	movlw	0
  1209  03BE  00A3               	movwf	?___xxtofl+3
  1210  03BF  3000               	movlw	0
  1211  03C0  00A2               	movwf	?___xxtofl+2
  1212  03C1  3000               	movlw	0
  1213  03C2  00A1               	movwf	?___xxtofl+1
  1214  03C3  3000               	movlw	0
  1215  03C4  00A0               	movwf	?___xxtofl
  1216  03C5  2C4C               	goto	l620
  1217  03C6                     l1773:
  1218  03C6  3096               	movlw	150
  1219  03C7  00A4               	movwf	??___xxtofl
  1220  03C8  0824               	movf	??___xxtofl,w
  1221  03C9  00A9               	movwf	___xxtofl@exp
  1222  03CA  2BD8               	goto	l1777
  1223  03CB                     l1775:
  1224  03CB  3001               	movlw	1
  1225  03CC  00A4               	movwf	??___xxtofl
  1226  03CD  0824               	movf	??___xxtofl,w
  1227  03CE  07A9               	addwf	___xxtofl@exp,f
  1228  03CF  3001               	movlw	1
  1229  03D0                     u2495:
  1230  03D0  1003               	clrc
  1231  03D1  0CAD               	rrf	___xxtofl@arg+3,f
  1232  03D2  0CAC               	rrf	___xxtofl@arg+2,f
  1233  03D3  0CAB               	rrf	___xxtofl@arg+1,f
  1234  03D4  0CAA               	rrf	___xxtofl@arg,f
  1235  03D5  3EFF               	addlw	-1
  1236  03D6  1D03               	skipz
  1237  03D7  2BD0               	goto	u2495
  1238  03D8                     l1777:
  1239  03D8  30FE               	movlw	254
  1240  03D9  052D               	andwf	___xxtofl@arg+3,w
  1241  03DA  1D03               	btfss	3,2
  1242  03DB  2BDD               	goto	u2501
  1243  03DC  2BDE               	goto	u2500
  1244  03DD                     u2501:
  1245  03DD  2BCB               	goto	l1775
  1246  03DE                     u2500:
  1247  03DE  2BFA               	goto	l624
  1248  03DF                     l1779:
  1249  03DF  3001               	movlw	1
  1250  03E0  00A4               	movwf	??___xxtofl
  1251  03E1  0824               	movf	??___xxtofl,w
  1252  03E2  07A9               	addwf	___xxtofl@exp,f
  1253  03E3                     l1781:
  1254  03E3  3001               	movlw	1
  1255  03E4  07AA               	addwf	___xxtofl@arg,f
  1256  03E5  3000               	movlw	0
  1257  03E6  1803               	skipnc
  1258  03E7  3001               	movlw	1
  1259  03E8  07AB               	addwf	___xxtofl@arg+1,f
  1260  03E9  3000               	movlw	0
  1261  03EA  1803               	skipnc
  1262  03EB  3001               	movlw	1
  1263  03EC  07AC               	addwf	___xxtofl@arg+2,f
  1264  03ED  3000               	movlw	0
  1265  03EE  1803               	skipnc
  1266  03EF  3001               	movlw	1
  1267  03F0  07AD               	addwf	___xxtofl@arg+3,f
  1268  03F1                     l1783:
  1269  03F1  3001               	movlw	1
  1270  03F2                     u2515:
  1271  03F2  1003               	clrc
  1272  03F3  0CAD               	rrf	___xxtofl@arg+3,f
  1273  03F4  0CAC               	rrf	___xxtofl@arg+2,f
  1274  03F5  0CAB               	rrf	___xxtofl@arg+1,f
  1275  03F6  0CAA               	rrf	___xxtofl@arg,f
  1276  03F7  3EFF               	addlw	-1
  1277  03F8  1D03               	skipz
  1278  03F9  2BF2               	goto	u2515
  1279  03FA                     l624:
  1280  03FA  30FF               	movlw	255
  1281  03FB  052D               	andwf	___xxtofl@arg+3,w
  1282  03FC  1D03               	btfss	3,2
  1283  03FD  2BFF               	goto	u2521
  1284  03FE  2C00               	goto	u2520
  1285  03FF                     u2521:
  1286  03FF  2BDF               	goto	l1779
  1287  0400                     u2520:
  1288  0400  2C0C               	goto	l1787
  1289  0401                     l1785:
  1290  0401  3001               	movlw	1
  1291  0402  02A9               	subwf	___xxtofl@exp,f
  1292  0403  3001               	movlw	1
  1293  0404  00A4               	movwf	??___xxtofl
  1294  0405                     u2535:
  1295  0405  1003               	clrc
  1296  0406  0DAA               	rlf	___xxtofl@arg,f
  1297  0407  0DAB               	rlf	___xxtofl@arg+1,f
  1298  0408  0DAC               	rlf	___xxtofl@arg+2,f
  1299  0409  0DAD               	rlf	___xxtofl@arg+3,f
  1300  040A  0BA4               	decfsz	??___xxtofl,f
  1301  040B  2C05               	goto	u2535
  1302  040C                     l1787:
  1303  040C  1BAC               	btfsc	___xxtofl@arg+2,7
  1304  040D  2C0F               	goto	u2541
  1305  040E  2C10               	goto	u2540
  1306  040F                     u2541:
  1307  040F  2C16               	goto	l631
  1308  0410                     u2540:
  1309  0410                     l1789:
  1310  0410  3002               	movlw	2
  1311  0411  0229               	subwf	___xxtofl@exp,w
  1312  0412  1803               	skipnc
  1313  0413  2C15               	goto	u2551
  1314  0414  2C16               	goto	u2550
  1315  0415                     u2551:
  1316  0415  2C01               	goto	l1785
  1317  0416                     u2550:
  1318  0416                     l631:
  1319  0416  1829               	btfsc	___xxtofl@exp,0
  1320  0417  2C19               	goto	u2561
  1321  0418  2C1A               	goto	u2560
  1322  0419                     u2561:
  1323  0419  2C22               	goto	l632
  1324  041A                     u2560:
  1325  041A                     l1791:
  1326  041A  30FF               	movlw	255
  1327  041B  05AA               	andwf	___xxtofl@arg,f
  1328  041C  30FF               	movlw	255
  1329  041D  05AB               	andwf	___xxtofl@arg+1,f
  1330  041E  307F               	movlw	127
  1331  041F  05AC               	andwf	___xxtofl@arg+2,f
  1332  0420  30FF               	movlw	255
  1333  0421  05AD               	andwf	___xxtofl@arg+3,f
  1334  0422                     l632:
  1335  0422  1003               	clrc
  1336  0423  0CA9               	rrf	___xxtofl@exp,f
  1337  0424                     l1793:
  1338  0424  0829               	movf	___xxtofl@exp,w
  1339  0425  00A4               	movwf	??___xxtofl
  1340  0426  01A5               	clrf	??___xxtofl+1
  1341  0427  01A6               	clrf	??___xxtofl+2
  1342  0428  01A7               	clrf	??___xxtofl+3
  1343  0429  3018               	movlw	24
  1344  042A                     u2575:
  1345  042A  1003               	clrc
  1346  042B  0DA4               	rlf	??___xxtofl,f
  1347  042C  0DA5               	rlf	??___xxtofl+1,f
  1348  042D  0DA6               	rlf	??___xxtofl+2,f
  1349  042E  0DA7               	rlf	??___xxtofl+3,f
  1350  042F                     u2570:
  1351  042F  3EFF               	addlw	-1
  1352  0430  1D03               	skipz
  1353  0431  2C2A               	goto	u2575
  1354  0432  0824               	movf	??___xxtofl,w
  1355  0433  04AA               	iorwf	___xxtofl@arg,f
  1356  0434  0825               	movf	??___xxtofl+1,w
  1357  0435  04AB               	iorwf	___xxtofl@arg+1,f
  1358  0436  0826               	movf	??___xxtofl+2,w
  1359  0437  04AC               	iorwf	___xxtofl@arg+2,f
  1360  0438  0827               	movf	??___xxtofl+3,w
  1361  0439  04AD               	iorwf	___xxtofl@arg+3,f
  1362  043A                     l1795:
  1363  043A  0828               	movf	___xxtofl@sign,w
  1364  043B  1903               	btfsc	3,2
  1365  043C  2C3E               	goto	u2581
  1366  043D  2C3F               	goto	u2580
  1367  043E                     u2581:
  1368  043E  2C44               	goto	l1801
  1369  043F                     u2580:
  1370  043F                     l1797:
  1371  043F  1FA3               	btfss	___xxtofl@val+3,7
  1372  0440  2C42               	goto	u2591
  1373  0441  2C43               	goto	u2590
  1374  0442                     u2591:
  1375  0442  2C44               	goto	l1801
  1376  0443                     u2590:
  1377  0443                     l1799:
  1378  0443  17AD               	bsf	___xxtofl@arg+3,7
  1379  0444                     l1801:
  1380  0444  082D               	movf	___xxtofl@arg+3,w
  1381  0445  00A3               	movwf	?___xxtofl+3
  1382  0446  082C               	movf	___xxtofl@arg+2,w
  1383  0447  00A2               	movwf	?___xxtofl+2
  1384  0448  082B               	movf	___xxtofl@arg+1,w
  1385  0449  00A1               	movwf	?___xxtofl+1
  1386  044A  082A               	movf	___xxtofl@arg,w
  1387  044B  00A0               	movwf	?___xxtofl
  1388  044C                     l620:
  1389  044C  0008               	return
  1390  044D                     __end_of___xxtofl:
  1391                           
  1392                           	psect	text5
  1393  04FC                     __ptext5:	
  1394 ;; *************** function ___fltol *****************
  1395 ;; Defined at:
  1396 ;;		line 43 in file "C:\Program Files\Microchip\xc8\v2.35\pic\sources\c90\common\fltol.c"
  1397 ;; Parameters:    Size  Location     Type
  1398 ;;  f1              4   40[BANK0 ] unsigned char 
  1399 ;; Auto vars:     Size  Location     Type
  1400 ;;  exp1            1   50[BANK0 ] unsigned char 
  1401 ;;  sign1           1   49[BANK0 ] unsigned char 
  1402 ;; Return value:  Size  Location     Type
  1403 ;;                  4   40[BANK0 ] long 
  1404 ;; Registers used:
  1405 ;;		wreg, status,2, status,0
  1406 ;; Tracked objects:
  1407 ;;		On entry : 0/0
  1408 ;;		On exit  : 0/0
  1409 ;;		Unchanged: 0/0
  1410 ;; Data sizes:     COMMON   BANK0   BANK1   BANK3   BANK2
  1411 ;;      Params:         0       4       0       0       0
  1412 ;;      Locals:         0       2       0       0       0
  1413 ;;      Temps:          0       5       0       0       0
  1414 ;;      Totals:         0      11       0       0       0
  1415 ;;Total ram usage:       11 bytes
  1416 ;; Hardware stack levels used: 1
  1417 ;; Hardware stack levels required when called: 1
  1418 ;; This function calls:
  1419 ;;		Nothing
  1420 ;; This function is called by:
  1421 ;;		_digits
  1422 ;; This function uses a non-reentrant model
  1423 ;;
  1424                           
  1425  04FC                     ___fltol:	
  1426                           ;psect for function ___fltol
  1427                           
  1428  04FC                     l1225:	
  1429                           ;incstack = 0
  1430                           ; Regs used in ___fltol: [wreg+status,2+status,0]
  1431                           
  1432  04FC  1003               	clrc
  1433  04FD  1283               	bcf	3,5	;RP0=0, select bank0
  1434  04FE  1303               	bcf	3,6	;RP1=0, select bank0
  1435  04FF  0D4A               	rlf	___fltol@f1+2,w
  1436  0500  0D4B               	rlf	___fltol@f1+3,w
  1437  0501  00CC               	movwf	??___fltol
  1438  0502  084C               	movf	??___fltol,w
  1439  0503  00D2               	movwf	___fltol@exp1
  1440  0504  0852               	movf	___fltol@exp1,w
  1441  0505  1D03               	btfss	3,2
  1442  0506  2D08               	goto	u1161
  1443  0507  2D09               	goto	u1160
  1444  0508                     u1161:
  1445  0508  2D12               	goto	l1231
  1446  0509                     u1160:
  1447  0509                     l1227:
  1448  0509  3000               	movlw	0
  1449  050A  00CB               	movwf	?___fltol+3
  1450  050B  3000               	movlw	0
  1451  050C  00CA               	movwf	?___fltol+2
  1452  050D  3000               	movlw	0
  1453  050E  00C9               	movwf	?___fltol+1
  1454  050F  3000               	movlw	0
  1455  0510  00C8               	movwf	?___fltol
  1456  0511  2D77               	goto	l371
  1457  0512                     l1231:
  1458  0512  0848               	movf	___fltol@f1,w
  1459  0513  00CC               	movwf	??___fltol
  1460  0514  0849               	movf	___fltol@f1+1,w
  1461  0515  00CD               	movwf	??___fltol+1
  1462  0516  084A               	movf	___fltol@f1+2,w
  1463  0517  00CE               	movwf	??___fltol+2
  1464  0518  084B               	movf	___fltol@f1+3,w
  1465  0519  00CF               	movwf	??___fltol+3
  1466  051A  301F               	movlw	31
  1467  051B                     u1175:
  1468  051B  1003               	clrc
  1469  051C  0CCF               	rrf	??___fltol+3,f
  1470  051D  0CCE               	rrf	??___fltol+2,f
  1471  051E  0CCD               	rrf	??___fltol+1,f
  1472  051F  0CCC               	rrf	??___fltol,f
  1473  0520                     u1170:
  1474  0520  3EFF               	addlw	-1
  1475  0521  1D03               	skipz
  1476  0522  2D1B               	goto	u1175
  1477  0523  084C               	movf	??___fltol,w
  1478  0524  00D0               	movwf	??___fltol+4
  1479  0525  0850               	movf	??___fltol+4,w
  1480  0526  00D1               	movwf	___fltol@sign1
  1481  0527                     l1233:
  1482  0527  17CA               	bsf	___fltol@f1+2,7
  1483  0528                     l1235:
  1484  0528  30FF               	movlw	255
  1485  0529  05C8               	andwf	___fltol@f1,f
  1486  052A  30FF               	movlw	255
  1487  052B  05C9               	andwf	___fltol@f1+1,f
  1488  052C  30FF               	movlw	255
  1489  052D  05CA               	andwf	___fltol@f1+2,f
  1490  052E  3000               	movlw	0
  1491  052F  05CB               	andwf	___fltol@f1+3,f
  1492  0530                     l1237:
  1493  0530  3096               	movlw	150
  1494  0531  02D2               	subwf	___fltol@exp1,f
  1495  0532                     l1239:
  1496  0532  1FD2               	btfss	___fltol@exp1,7
  1497  0533  2D35               	goto	u1181
  1498  0534  2D36               	goto	u1180
  1499  0535                     u1181:
  1500  0535  2D50               	goto	l1249
  1501  0536                     u1180:
  1502  0536                     l1241:
  1503  0536  0852               	movf	___fltol@exp1,w
  1504  0537  3A80               	xorlw	128
  1505  0538  3E97               	addlw	151
  1506  0539  1803               	skipnc
  1507  053A  2D3C               	goto	u1191
  1508  053B  2D3D               	goto	u1190
  1509  053C                     u1191:
  1510  053C  2D3E               	goto	l1247
  1511  053D                     u1190:
  1512  053D  2D09               	goto	l1227
  1513  053E                     l1247:
  1514  053E  3001               	movlw	1
  1515  053F                     u1205:
  1516  053F  1003               	clrc
  1517  0540  0CCB               	rrf	___fltol@f1+3,f
  1518  0541  0CCA               	rrf	___fltol@f1+2,f
  1519  0542  0CC9               	rrf	___fltol@f1+1,f
  1520  0543  0CC8               	rrf	___fltol@f1,f
  1521  0544  3EFF               	addlw	-1
  1522  0545  1D03               	skipz
  1523  0546  2D3F               	goto	u1205
  1524  0547  3001               	movlw	1
  1525  0548  00CC               	movwf	??___fltol
  1526  0549  084C               	movf	??___fltol,w
  1527  054A  07D2               	addwf	___fltol@exp1,f
  1528  054B  1D03               	btfss	3,2
  1529  054C  2D4E               	goto	u1211
  1530  054D  2D4F               	goto	u1210
  1531  054E                     u1211:
  1532  054E  2D3E               	goto	l1247
  1533  054F                     u1210:
  1534  054F  2D67               	goto	l1257
  1535  0550                     l1249:
  1536  0550  3020               	movlw	32
  1537  0551  0252               	subwf	___fltol@exp1,w
  1538  0552  1C03               	skipc
  1539  0553  2D55               	goto	u1221
  1540  0554  2D56               	goto	u1220
  1541  0555                     u1221:
  1542  0555  2D62               	goto	l378
  1543  0556                     u1220:
  1544  0556  2D09               	goto	l1227
  1545  0557                     l1255:
  1546  0557  3001               	movlw	1
  1547  0558  00CC               	movwf	??___fltol
  1548  0559                     u1235:
  1549  0559  1003               	clrc
  1550  055A  0DC8               	rlf	___fltol@f1,f
  1551  055B  0DC9               	rlf	___fltol@f1+1,f
  1552  055C  0DCA               	rlf	___fltol@f1+2,f
  1553  055D  0DCB               	rlf	___fltol@f1+3,f
  1554  055E  0BCC               	decfsz	??___fltol,f
  1555  055F  2D59               	goto	u1235
  1556  0560  3001               	movlw	1
  1557  0561  02D2               	subwf	___fltol@exp1,f
  1558  0562                     l378:
  1559  0562  0852               	movf	___fltol@exp1,w
  1560  0563  1D03               	btfss	3,2
  1561  0564  2D66               	goto	u1241
  1562  0565  2D67               	goto	u1240
  1563  0566                     u1241:
  1564  0566  2D57               	goto	l1255
  1565  0567                     u1240:
  1566  0567                     l1257:
  1567  0567  0851               	movf	___fltol@sign1,w
  1568  0568  1903               	btfsc	3,2
  1569  0569  2D6B               	goto	u1251
  1570  056A  2D6C               	goto	u1250
  1571  056B                     u1251:
  1572  056B  2D77               	goto	l381
  1573  056C                     u1250:
  1574  056C                     l1259:
  1575  056C  09C8               	comf	___fltol@f1,f
  1576  056D  09C9               	comf	___fltol@f1+1,f
  1577  056E  09CA               	comf	___fltol@f1+2,f
  1578  056F  09CB               	comf	___fltol@f1+3,f
  1579  0570  0AC8               	incf	___fltol@f1,f
  1580  0571  1903               	skipnz
  1581  0572  0AC9               	incf	___fltol@f1+1,f
  1582  0573  1903               	skipnz
  1583  0574  0ACA               	incf	___fltol@f1+2,f
  1584  0575  1903               	skipnz
  1585  0576  0ACB               	incf	___fltol@f1+3,f
  1586  0577                     l381:
  1587  0577                     l371:
  1588  0577  0008               	return
  1589  0578                     __end_of___fltol:
  1590                           
  1591                           	psect	text6
  1592  0030                     __ptext6:	
  1593 ;; *************** function ___flmul *****************
  1594 ;; Defined at:
  1595 ;;		line 8 in file "C:\Program Files\Microchip\xc8\v2.35\pic\sources\c90\common\sprcmul.c"
  1596 ;; Parameters:    Size  Location     Type
  1597 ;;  b               4   14[BANK0 ] long 
  1598 ;;  a               4   18[BANK0 ] long 
  1599 ;; Auto vars:     Size  Location     Type
  1600 ;;  prod            4   34[BANK0 ] struct .
  1601 ;;  grs             4   29[BANK0 ] unsigned long 
  1602 ;;  temp            2   38[BANK0 ] struct .
  1603 ;;  bexp            1   33[BANK0 ] unsigned char 
  1604 ;;  aexp            1   28[BANK0 ] unsigned char 
  1605 ;;  sign            1   27[BANK0 ] unsigned char 
  1606 ;; Return value:  Size  Location     Type
  1607 ;;                  4   14[BANK0 ] unsigned char 
  1608 ;; Registers used:
  1609 ;;		wreg, status,2, status,0, btemp+1, pclath, cstack
  1610 ;; Tracked objects:
  1611 ;;		On entry : 0/0
  1612 ;;		On exit  : 0/0
  1613 ;;		Unchanged: 0/0
  1614 ;; Data sizes:     COMMON   BANK0   BANK1   BANK3   BANK2
  1615 ;;      Params:         0       8       0       0       0
  1616 ;;      Locals:         0      13       0       0       0
  1617 ;;      Temps:          0       5       0       0       0
  1618 ;;      Totals:         0      26       0       0       0
  1619 ;;Total ram usage:       26 bytes
  1620 ;; Hardware stack levels used: 1
  1621 ;; Hardware stack levels required when called: 2
  1622 ;; This function calls:
  1623 ;;		__Umul8_16
  1624 ;; This function is called by:
  1625 ;;		_digits
  1626 ;; This function uses a non-reentrant model
  1627 ;;
  1628                           
  1629  0030                     ___flmul:	
  1630                           ;psect for function ___flmul
  1631                           
  1632  0030                     l1621:	
  1633                           ;incstack = 0
  1634                           ; Regs used in ___flmul: [wreg+status,2+status,0+btemp+1+pclath+cstack]
  1635                           
  1636  0030  1283               	bcf	3,5	;RP0=0, select bank0
  1637  0031  1303               	bcf	3,6	;RP1=0, select bank0
  1638  0032  0831               	movf	___flmul@b+3,w
  1639  0033  3980               	andlw	128
  1640  0034  00B6               	movwf	??___flmul
  1641  0035  0836               	movf	??___flmul,w
  1642  0036  00BB               	movwf	___flmul@sign
  1643  0037                     l1623:
  1644  0037  0831               	movf	___flmul@b+3,w
  1645  0038  00B6               	movwf	??___flmul
  1646  0039  0736               	addwf	??___flmul,w
  1647  003A  00B7               	movwf	??___flmul+1
  1648  003B  0837               	movf	??___flmul+1,w
  1649  003C  00C1               	movwf	___flmul@bexp
  1650  003D                     l1625:
  1651  003D  1FB0               	btfss	___flmul@b+2,7
  1652  003E  2840               	goto	u2091
  1653  003F  2841               	goto	u2090
  1654  0040                     u2091:
  1655  0040  2842               	goto	l1629
  1656  0041                     u2090:
  1657  0041                     l1627:
  1658  0041  1441               	bsf	___flmul@bexp,0
  1659  0042                     l1629:
  1660  0042  0841               	movf	___flmul@bexp,w
  1661  0043  1903               	btfsc	3,2
  1662  0044  2846               	goto	u2101
  1663  0045  2847               	goto	u2100
  1664  0046                     u2101:
  1665  0046  2856               	goto	l1637
  1666  0047                     u2100:
  1667  0047                     l1631:
  1668  0047  0A41               	incf	___flmul@bexp,w
  1669  0048  1D03               	btfss	3,2
  1670  0049  284B               	goto	u2111
  1671  004A  284C               	goto	u2110
  1672  004B                     u2111:
  1673  004B  2854               	goto	l1635
  1674  004C                     u2110:
  1675  004C                     l1633:
  1676  004C  3000               	movlw	0
  1677  004D  00B1               	movwf	___flmul@b+3
  1678  004E  3000               	movlw	0
  1679  004F  00B0               	movwf	___flmul@b+2
  1680  0050  3000               	movlw	0
  1681  0051  00AF               	movwf	___flmul@b+1
  1682  0052  3000               	movlw	0
  1683  0053  00AE               	movwf	___flmul@b
  1684  0054                     l1635:
  1685  0054  17B0               	bsf	___flmul@b+2,7
  1686  0055  285E               	goto	l1639
  1687  0056                     l1637:
  1688  0056  3000               	movlw	0
  1689  0057  00B1               	movwf	___flmul@b+3
  1690  0058  3000               	movlw	0
  1691  0059  00B0               	movwf	___flmul@b+2
  1692  005A  3000               	movlw	0
  1693  005B  00AF               	movwf	___flmul@b+1
  1694  005C  3000               	movlw	0
  1695  005D  00AE               	movwf	___flmul@b
  1696  005E                     l1639:
  1697  005E  0835               	movf	___flmul@a+3,w
  1698  005F  3980               	andlw	128
  1699  0060  00B6               	movwf	??___flmul
  1700  0061  0836               	movf	??___flmul,w
  1701  0062  06BB               	xorwf	___flmul@sign,f
  1702  0063                     l1641:
  1703  0063  0835               	movf	___flmul@a+3,w
  1704  0064  00B6               	movwf	??___flmul
  1705  0065  0736               	addwf	??___flmul,w
  1706  0066  00B7               	movwf	??___flmul+1
  1707  0067  0837               	movf	??___flmul+1,w
  1708  0068  00BC               	movwf	___flmul@aexp
  1709  0069                     l1643:
  1710  0069  1FB4               	btfss	___flmul@a+2,7
  1711  006A  286C               	goto	u2121
  1712  006B  286D               	goto	u2120
  1713  006C                     u2121:
  1714  006C  286E               	goto	l1647
  1715  006D                     u2120:
  1716  006D                     l1645:
  1717  006D  143C               	bsf	___flmul@aexp,0
  1718  006E                     l1647:
  1719  006E  083C               	movf	___flmul@aexp,w
  1720  006F  1903               	btfsc	3,2
  1721  0070  2872               	goto	u2131
  1722  0071  2873               	goto	u2130
  1723  0072                     u2131:
  1724  0072  2882               	goto	l1655
  1725  0073                     u2130:
  1726  0073                     l1649:
  1727  0073  0A3C               	incf	___flmul@aexp,w
  1728  0074  1D03               	btfss	3,2
  1729  0075  2877               	goto	u2141
  1730  0076  2878               	goto	u2140
  1731  0077                     u2141:
  1732  0077  2880               	goto	l1653
  1733  0078                     u2140:
  1734  0078                     l1651:
  1735  0078  3000               	movlw	0
  1736  0079  00B5               	movwf	___flmul@a+3
  1737  007A  3000               	movlw	0
  1738  007B  00B4               	movwf	___flmul@a+2
  1739  007C  3000               	movlw	0
  1740  007D  00B3               	movwf	___flmul@a+1
  1741  007E  3000               	movlw	0
  1742  007F  00B2               	movwf	___flmul@a
  1743  0080                     l1653:
  1744  0080  17B4               	bsf	___flmul@a+2,7
  1745  0081  288A               	goto	l1657
  1746  0082                     l1655:
  1747  0082  3000               	movlw	0
  1748  0083  00B5               	movwf	___flmul@a+3
  1749  0084  3000               	movlw	0
  1750  0085  00B4               	movwf	___flmul@a+2
  1751  0086  3000               	movlw	0
  1752  0087  00B3               	movwf	___flmul@a+1
  1753  0088  3000               	movlw	0
  1754  0089  00B2               	movwf	___flmul@a
  1755  008A                     l1657:
  1756  008A  083C               	movf	___flmul@aexp,w
  1757  008B  1903               	btfsc	3,2
  1758  008C  288E               	goto	u2151
  1759  008D  288F               	goto	u2150
  1760  008E                     u2151:
  1761  008E  2894               	goto	l1661
  1762  008F                     u2150:
  1763  008F                     l1659:
  1764  008F  0841               	movf	___flmul@bexp,w
  1765  0090  1D03               	btfss	3,2
  1766  0091  2893               	goto	u2161
  1767  0092  2894               	goto	u2160
  1768  0093                     u2161:
  1769  0093  289D               	goto	l1665
  1770  0094                     u2160:
  1771  0094                     l1661:
  1772  0094  3000               	movlw	0
  1773  0095  00B1               	movwf	?___flmul+3
  1774  0096  3000               	movlw	0
  1775  0097  00B0               	movwf	?___flmul+2
  1776  0098  3000               	movlw	0
  1777  0099  00AF               	movwf	?___flmul+1
  1778  009A  3000               	movlw	0
  1779  009B  00AE               	movwf	?___flmul
  1780  009C  2B90               	goto	l574
  1781  009D                     l1665:
  1782  009D  082E               	movf	___flmul@b,w
  1783  009E  00B6               	movwf	??___flmul
  1784  009F  0836               	movf	??___flmul,w
  1785  00A0  00F5               	movwf	__Umul8_16@multiplicand
  1786  00A1  0834               	movf	___flmul@a+2,w
  1787  00A2  120A  118A  2726  120A  118A  	fcall	__Umul8_16
  1788  00A7  0876               	movf	?__Umul8_16+1,w
  1789  00A8  1283               	bcf	3,5	;RP0=0, select bank0
  1790  00A9  1303               	bcf	3,6	;RP1=0, select bank0
  1791  00AA  00C7               	movwf	___flmul@temp+1
  1792  00AB  0875               	movf	?__Umul8_16,w
  1793  00AC  00C6               	movwf	___flmul@temp
  1794  00AD                     l1667:
  1795  00AD  0846               	movf	___flmul@temp,w
  1796  00AE  00B6               	movwf	??___flmul
  1797  00AF  01B7               	clrf	??___flmul+1
  1798  00B0  01B8               	clrf	??___flmul+2
  1799  00B1  01B9               	clrf	??___flmul+3
  1800  00B2  0839               	movf	??___flmul+3,w
  1801  00B3  00C0               	movwf	___flmul@grs+3
  1802  00B4  0838               	movf	??___flmul+2,w
  1803  00B5  00BF               	movwf	___flmul@grs+2
  1804  00B6  0837               	movf	??___flmul+1,w
  1805  00B7  00BE               	movwf	___flmul@grs+1
  1806  00B8  0836               	movf	??___flmul,w
  1807  00B9  00BD               	movwf	___flmul@grs
  1808  00BA                     l1669:
  1809  00BA  0847               	movf	___flmul@temp+1,w
  1810  00BB  00B6               	movwf	??___flmul
  1811  00BC  01B7               	clrf	??___flmul+1
  1812  00BD  01B8               	clrf	??___flmul+2
  1813  00BE  01B9               	clrf	??___flmul+3
  1814  00BF  0839               	movf	??___flmul+3,w
  1815  00C0  00C5               	movwf	___flmul@prod+3
  1816  00C1  0838               	movf	??___flmul+2,w
  1817  00C2  00C4               	movwf	___flmul@prod+2
  1818  00C3  0837               	movf	??___flmul+1,w
  1819  00C4  00C3               	movwf	___flmul@prod+1
  1820  00C5  0836               	movf	??___flmul,w
  1821  00C6  00C2               	movwf	___flmul@prod
  1822  00C7  082F               	movf	___flmul@b+1,w
  1823  00C8  00B6               	movwf	??___flmul
  1824  00C9  0836               	movf	??___flmul,w
  1825  00CA  00F5               	movwf	__Umul8_16@multiplicand
  1826  00CB  0833               	movf	___flmul@a+1,w
  1827  00CC  120A  118A  2726  120A  118A  	fcall	__Umul8_16
  1828  00D1  0876               	movf	?__Umul8_16+1,w
  1829  00D2  1283               	bcf	3,5	;RP0=0, select bank0
  1830  00D3  1303               	bcf	3,6	;RP1=0, select bank0
  1831  00D4  00C7               	movwf	___flmul@temp+1
  1832  00D5  0875               	movf	?__Umul8_16,w
  1833  00D6  00C6               	movwf	___flmul@temp
  1834  00D7                     l1671:
  1835  00D7  0846               	movf	___flmul@temp,w
  1836  00D8  00B6               	movwf	??___flmul
  1837  00D9  01B7               	clrf	??___flmul+1
  1838  00DA  01B8               	clrf	??___flmul+2
  1839  00DB  01B9               	clrf	??___flmul+3
  1840  00DC  0836               	movf	??___flmul,w
  1841  00DD  07BD               	addwf	___flmul@grs,f
  1842  00DE  0837               	movf	??___flmul+1,w
  1843  00DF  1103               	clrz
  1844  00E0  1803               	skipnc
  1845  00E1  3E01               	addlw	1
  1846  00E2  1903               	skipnz
  1847  00E3  28E5               	goto	u2171
  1848  00E4  07BE               	addwf	___flmul@grs+1,f
  1849  00E5                     u2171:
  1850  00E5  0838               	movf	??___flmul+2,w
  1851  00E6  1103               	clrz
  1852  00E7  1803               	skipnc
  1853  00E8  3E01               	addlw	1
  1854  00E9  1903               	skipnz
  1855  00EA  28EC               	goto	u2172
  1856  00EB  07BF               	addwf	___flmul@grs+2,f
  1857  00EC                     u2172:
  1858  00EC  0839               	movf	??___flmul+3,w
  1859  00ED  1103               	clrz
  1860  00EE  1803               	skipnc
  1861  00EF  3E01               	addlw	1
  1862  00F0  1903               	skipnz
  1863  00F1  28F3               	goto	u2173
  1864  00F2  07C0               	addwf	___flmul@grs+3,f
  1865  00F3                     u2173:
  1866  00F3                     l1673:
  1867  00F3  0847               	movf	___flmul@temp+1,w
  1868  00F4  00B6               	movwf	??___flmul
  1869  00F5  01B7               	clrf	??___flmul+1
  1870  00F6  01B8               	clrf	??___flmul+2
  1871  00F7  01B9               	clrf	??___flmul+3
  1872  00F8  0836               	movf	??___flmul,w
  1873  00F9  07C2               	addwf	___flmul@prod,f
  1874  00FA  0837               	movf	??___flmul+1,w
  1875  00FB  1103               	clrz
  1876  00FC  1803               	skipnc
  1877  00FD  3E01               	addlw	1
  1878  00FE  1903               	skipnz
  1879  00FF  2901               	goto	u2181
  1880  0100  07C3               	addwf	___flmul@prod+1,f
  1881  0101                     u2181:
  1882  0101  0838               	movf	??___flmul+2,w
  1883  0102  1103               	clrz
  1884  0103  1803               	skipnc
  1885  0104  3E01               	addlw	1
  1886  0105  1903               	skipnz
  1887  0106  2908               	goto	u2182
  1888  0107  07C4               	addwf	___flmul@prod+2,f
  1889  0108                     u2182:
  1890  0108  0839               	movf	??___flmul+3,w
  1891  0109  1103               	clrz
  1892  010A  1803               	skipnc
  1893  010B  3E01               	addlw	1
  1894  010C  1903               	skipnz
  1895  010D  290F               	goto	u2183
  1896  010E  07C5               	addwf	___flmul@prod+3,f
  1897  010F                     u2183:
  1898  010F  0830               	movf	___flmul@b+2,w
  1899  0110  00B6               	movwf	??___flmul
  1900  0111  0836               	movf	??___flmul,w
  1901  0112  00F5               	movwf	__Umul8_16@multiplicand
  1902  0113  0832               	movf	___flmul@a,w
  1903  0114  120A  118A  2726  120A  118A  	fcall	__Umul8_16
  1904  0119  0876               	movf	?__Umul8_16+1,w
  1905  011A  1283               	bcf	3,5	;RP0=0, select bank0
  1906  011B  1303               	bcf	3,6	;RP1=0, select bank0
  1907  011C  00C7               	movwf	___flmul@temp+1
  1908  011D  0875               	movf	?__Umul8_16,w
  1909  011E  00C6               	movwf	___flmul@temp
  1910  011F                     l1675:
  1911  011F  0846               	movf	___flmul@temp,w
  1912  0120  00B6               	movwf	??___flmul
  1913  0121  01B7               	clrf	??___flmul+1
  1914  0122  01B8               	clrf	??___flmul+2
  1915  0123  01B9               	clrf	??___flmul+3
  1916  0124  0836               	movf	??___flmul,w
  1917  0125  07BD               	addwf	___flmul@grs,f
  1918  0126  0837               	movf	??___flmul+1,w
  1919  0127  1103               	clrz
  1920  0128  1803               	skipnc
  1921  0129  3E01               	addlw	1
  1922  012A  1903               	skipnz
  1923  012B  292D               	goto	u2191
  1924  012C  07BE               	addwf	___flmul@grs+1,f
  1925  012D                     u2191:
  1926  012D  0838               	movf	??___flmul+2,w
  1927  012E  1103               	clrz
  1928  012F  1803               	skipnc
  1929  0130  3E01               	addlw	1
  1930  0131  1903               	skipnz
  1931  0132  2934               	goto	u2192
  1932  0133  07BF               	addwf	___flmul@grs+2,f
  1933  0134                     u2192:
  1934  0134  0839               	movf	??___flmul+3,w
  1935  0135  1103               	clrz
  1936  0136  1803               	skipnc
  1937  0137  3E01               	addlw	1
  1938  0138  1903               	skipnz
  1939  0139  293B               	goto	u2193
  1940  013A  07C0               	addwf	___flmul@grs+3,f
  1941  013B                     u2193:
  1942  013B                     l1677:
  1943  013B  0847               	movf	___flmul@temp+1,w
  1944  013C  00B6               	movwf	??___flmul
  1945  013D  01B7               	clrf	??___flmul+1
  1946  013E  01B8               	clrf	??___flmul+2
  1947  013F  01B9               	clrf	??___flmul+3
  1948  0140  0836               	movf	??___flmul,w
  1949  0141  07C2               	addwf	___flmul@prod,f
  1950  0142  0837               	movf	??___flmul+1,w
  1951  0143  1103               	clrz
  1952  0144  1803               	skipnc
  1953  0145  3E01               	addlw	1
  1954  0146  1903               	skipnz
  1955  0147  2949               	goto	u2201
  1956  0148  07C3               	addwf	___flmul@prod+1,f
  1957  0149                     u2201:
  1958  0149  0838               	movf	??___flmul+2,w
  1959  014A  1103               	clrz
  1960  014B  1803               	skipnc
  1961  014C  3E01               	addlw	1
  1962  014D  1903               	skipnz
  1963  014E  2950               	goto	u2202
  1964  014F  07C4               	addwf	___flmul@prod+2,f
  1965  0150                     u2202:
  1966  0150  0839               	movf	??___flmul+3,w
  1967  0151  1103               	clrz
  1968  0152  1803               	skipnc
  1969  0153  3E01               	addlw	1
  1970  0154  1903               	skipnz
  1971  0155  2957               	goto	u2203
  1972  0156  07C5               	addwf	___flmul@prod+3,f
  1973  0157                     u2203:
  1974  0157                     l1679:
  1975  0157  3008               	movlw	8
  1976  0158  00B6               	movwf	??___flmul
  1977  0159                     u2215:
  1978  0159  1003               	clrc
  1979  015A  0DBD               	rlf	___flmul@grs,f
  1980  015B  0DBE               	rlf	___flmul@grs+1,f
  1981  015C  0DBF               	rlf	___flmul@grs+2,f
  1982  015D  0DC0               	rlf	___flmul@grs+3,f
  1983  015E  0BB6               	decfsz	??___flmul,f
  1984  015F  2959               	goto	u2215
  1985  0160                     l1681:
  1986  0160  082F               	movf	___flmul@b+1,w
  1987  0161  00B6               	movwf	??___flmul
  1988  0162  0836               	movf	??___flmul,w
  1989  0163  00F5               	movwf	__Umul8_16@multiplicand
  1990  0164  0832               	movf	___flmul@a,w
  1991  0165  120A  118A  2726  120A  118A  	fcall	__Umul8_16
  1992  016A  0876               	movf	?__Umul8_16+1,w
  1993  016B  1283               	bcf	3,5	;RP0=0, select bank0
  1994  016C  1303               	bcf	3,6	;RP1=0, select bank0
  1995  016D  00C7               	movwf	___flmul@temp+1
  1996  016E  0875               	movf	?__Umul8_16,w
  1997  016F  00C6               	movwf	___flmul@temp
  1998  0170                     l1683:
  1999  0170  0846               	movf	___flmul@temp,w
  2000  0171  00B6               	movwf	??___flmul
  2001  0172  0847               	movf	___flmul@temp+1,w
  2002  0173  00B7               	movwf	??___flmul+1
  2003  0174  01B8               	clrf	??___flmul+2
  2004  0175  01B9               	clrf	??___flmul+3
  2005  0176  0836               	movf	??___flmul,w
  2006  0177  07BD               	addwf	___flmul@grs,f
  2007  0178  0837               	movf	??___flmul+1,w
  2008  0179  1103               	clrz
  2009  017A  1803               	skipnc
  2010  017B  3E01               	addlw	1
  2011  017C  1903               	skipnz
  2012  017D  297F               	goto	u2221
  2013  017E  07BE               	addwf	___flmul@grs+1,f
  2014  017F                     u2221:
  2015  017F  0838               	movf	??___flmul+2,w
  2016  0180  1103               	clrz
  2017  0181  1803               	skipnc
  2018  0182  3E01               	addlw	1
  2019  0183  1903               	skipnz
  2020  0184  2986               	goto	u2222
  2021  0185  07BF               	addwf	___flmul@grs+2,f
  2022  0186                     u2222:
  2023  0186  0839               	movf	??___flmul+3,w
  2024  0187  1103               	clrz
  2025  0188  1803               	skipnc
  2026  0189  3E01               	addlw	1
  2027  018A  1903               	skipnz
  2028  018B  298D               	goto	u2223
  2029  018C  07C0               	addwf	___flmul@grs+3,f
  2030  018D                     u2223:
  2031  018D                     l1685:
  2032  018D  082E               	movf	___flmul@b,w
  2033  018E  00B6               	movwf	??___flmul
  2034  018F  0836               	movf	??___flmul,w
  2035  0190  00F5               	movwf	__Umul8_16@multiplicand
  2036  0191  0833               	movf	___flmul@a+1,w
  2037  0192  120A  118A  2726  120A  118A  	fcall	__Umul8_16
  2038  0197  0876               	movf	?__Umul8_16+1,w
  2039  0198  1283               	bcf	3,5	;RP0=0, select bank0
  2040  0199  1303               	bcf	3,6	;RP1=0, select bank0
  2041  019A  00C7               	movwf	___flmul@temp+1
  2042  019B  0875               	movf	?__Umul8_16,w
  2043  019C  00C6               	movwf	___flmul@temp
  2044  019D                     l1687:
  2045  019D  0846               	movf	___flmul@temp,w
  2046  019E  00B6               	movwf	??___flmul
  2047  019F  0847               	movf	___flmul@temp+1,w
  2048  01A0  00B7               	movwf	??___flmul+1
  2049  01A1  01B8               	clrf	??___flmul+2
  2050  01A2  01B9               	clrf	??___flmul+3
  2051  01A3  0836               	movf	??___flmul,w
  2052  01A4  07BD               	addwf	___flmul@grs,f
  2053  01A5  0837               	movf	??___flmul+1,w
  2054  01A6  1103               	clrz
  2055  01A7  1803               	skipnc
  2056  01A8  3E01               	addlw	1
  2057  01A9  1903               	skipnz
  2058  01AA  29AC               	goto	u2231
  2059  01AB  07BE               	addwf	___flmul@grs+1,f
  2060  01AC                     u2231:
  2061  01AC  0838               	movf	??___flmul+2,w
  2062  01AD  1103               	clrz
  2063  01AE  1803               	skipnc
  2064  01AF  3E01               	addlw	1
  2065  01B0  1903               	skipnz
  2066  01B1  29B3               	goto	u2232
  2067  01B2  07BF               	addwf	___flmul@grs+2,f
  2068  01B3                     u2232:
  2069  01B3  0839               	movf	??___flmul+3,w
  2070  01B4  1103               	clrz
  2071  01B5  1803               	skipnc
  2072  01B6  3E01               	addlw	1
  2073  01B7  1903               	skipnz
  2074  01B8  29BA               	goto	u2233
  2075  01B9  07C0               	addwf	___flmul@grs+3,f
  2076  01BA                     u2233:
  2077  01BA                     l1689:
  2078  01BA  3008               	movlw	8
  2079  01BB  00B6               	movwf	??___flmul
  2080  01BC                     u2245:
  2081  01BC  1003               	clrc
  2082  01BD  0DBD               	rlf	___flmul@grs,f
  2083  01BE  0DBE               	rlf	___flmul@grs+1,f
  2084  01BF  0DBF               	rlf	___flmul@grs+2,f
  2085  01C0  0DC0               	rlf	___flmul@grs+3,f
  2086  01C1  0BB6               	decfsz	??___flmul,f
  2087  01C2  29BC               	goto	u2245
  2088  01C3  082E               	movf	___flmul@b,w
  2089  01C4  00B6               	movwf	??___flmul
  2090  01C5  0836               	movf	??___flmul,w
  2091  01C6  00F5               	movwf	__Umul8_16@multiplicand
  2092  01C7  0832               	movf	___flmul@a,w
  2093  01C8  120A  118A  2726  120A  118A  	fcall	__Umul8_16
  2094  01CD  0876               	movf	?__Umul8_16+1,w
  2095  01CE  1283               	bcf	3,5	;RP0=0, select bank0
  2096  01CF  1303               	bcf	3,6	;RP1=0, select bank0
  2097  01D0  00C7               	movwf	___flmul@temp+1
  2098  01D1  0875               	movf	?__Umul8_16,w
  2099  01D2  00C6               	movwf	___flmul@temp
  2100  01D3                     l1691:
  2101  01D3  0846               	movf	___flmul@temp,w
  2102  01D4  00B6               	movwf	??___flmul
  2103  01D5  0847               	movf	___flmul@temp+1,w
  2104  01D6  00B7               	movwf	??___flmul+1
  2105  01D7  01B8               	clrf	??___flmul+2
  2106  01D8  01B9               	clrf	??___flmul+3
  2107  01D9  0836               	movf	??___flmul,w
  2108  01DA  07BD               	addwf	___flmul@grs,f
  2109  01DB  0837               	movf	??___flmul+1,w
  2110  01DC  1103               	clrz
  2111  01DD  1803               	skipnc
  2112  01DE  3E01               	addlw	1
  2113  01DF  1903               	skipnz
  2114  01E0  29E2               	goto	u2251
  2115  01E1  07BE               	addwf	___flmul@grs+1,f
  2116  01E2                     u2251:
  2117  01E2  0838               	movf	??___flmul+2,w
  2118  01E3  1103               	clrz
  2119  01E4  1803               	skipnc
  2120  01E5  3E01               	addlw	1
  2121  01E6  1903               	skipnz
  2122  01E7  29E9               	goto	u2252
  2123  01E8  07BF               	addwf	___flmul@grs+2,f
  2124  01E9                     u2252:
  2125  01E9  0839               	movf	??___flmul+3,w
  2126  01EA  1103               	clrz
  2127  01EB  1803               	skipnc
  2128  01EC  3E01               	addlw	1
  2129  01ED  1903               	skipnz
  2130  01EE  29F0               	goto	u2253
  2131  01EF  07C0               	addwf	___flmul@grs+3,f
  2132  01F0                     u2253:
  2133  01F0                     l1693:
  2134  01F0  082F               	movf	___flmul@b+1,w
  2135  01F1  00B6               	movwf	??___flmul
  2136  01F2  0836               	movf	??___flmul,w
  2137  01F3  00F5               	movwf	__Umul8_16@multiplicand
  2138  01F4  0834               	movf	___flmul@a+2,w
  2139  01F5  120A  118A  2726  120A  118A  	fcall	__Umul8_16
  2140  01FA  0876               	movf	?__Umul8_16+1,w
  2141  01FB  1283               	bcf	3,5	;RP0=0, select bank0
  2142  01FC  1303               	bcf	3,6	;RP1=0, select bank0
  2143  01FD  00C7               	movwf	___flmul@temp+1
  2144  01FE  0875               	movf	?__Umul8_16,w
  2145  01FF  00C6               	movwf	___flmul@temp
  2146  0200  0846               	movf	___flmul@temp,w
  2147  0201  00B6               	movwf	??___flmul
  2148  0202  0847               	movf	___flmul@temp+1,w
  2149  0203  00B7               	movwf	??___flmul+1
  2150  0204  01B8               	clrf	??___flmul+2
  2151  0205  01B9               	clrf	??___flmul+3
  2152  0206  0836               	movf	??___flmul,w
  2153  0207  07C2               	addwf	___flmul@prod,f
  2154  0208  0837               	movf	??___flmul+1,w
  2155  0209  1103               	clrz
  2156  020A  1803               	skipnc
  2157  020B  3E01               	addlw	1
  2158  020C  1903               	skipnz
  2159  020D  2A0F               	goto	u2261
  2160  020E  07C3               	addwf	___flmul@prod+1,f
  2161  020F                     u2261:
  2162  020F  0838               	movf	??___flmul+2,w
  2163  0210  1103               	clrz
  2164  0211  1803               	skipnc
  2165  0212  3E01               	addlw	1
  2166  0213  1903               	skipnz
  2167  0214  2A16               	goto	u2262
  2168  0215  07C4               	addwf	___flmul@prod+2,f
  2169  0216                     u2262:
  2170  0216  0839               	movf	??___flmul+3,w
  2171  0217  1103               	clrz
  2172  0218  1803               	skipnc
  2173  0219  3E01               	addlw	1
  2174  021A  1903               	skipnz
  2175  021B  2A1D               	goto	u2263
  2176  021C  07C5               	addwf	___flmul@prod+3,f
  2177  021D                     u2263:
  2178  021D                     l1695:
  2179  021D  0830               	movf	___flmul@b+2,w
  2180  021E  00B6               	movwf	??___flmul
  2181  021F  0836               	movf	??___flmul,w
  2182  0220  00F5               	movwf	__Umul8_16@multiplicand
  2183  0221  0833               	movf	___flmul@a+1,w
  2184  0222  120A  118A  2726  120A  118A  	fcall	__Umul8_16
  2185  0227  0876               	movf	?__Umul8_16+1,w
  2186  0228  1283               	bcf	3,5	;RP0=0, select bank0
  2187  0229  1303               	bcf	3,6	;RP1=0, select bank0
  2188  022A  00C7               	movwf	___flmul@temp+1
  2189  022B  0875               	movf	?__Umul8_16,w
  2190  022C  00C6               	movwf	___flmul@temp
  2191  022D                     l1697:
  2192  022D  0846               	movf	___flmul@temp,w
  2193  022E  00B6               	movwf	??___flmul
  2194  022F  0847               	movf	___flmul@temp+1,w
  2195  0230  00B7               	movwf	??___flmul+1
  2196  0231  01B8               	clrf	??___flmul+2
  2197  0232  01B9               	clrf	??___flmul+3
  2198  0233  0836               	movf	??___flmul,w
  2199  0234  07C2               	addwf	___flmul@prod,f
  2200  0235  0837               	movf	??___flmul+1,w
  2201  0236  1103               	clrz
  2202  0237  1803               	skipnc
  2203  0238  3E01               	addlw	1
  2204  0239  1903               	skipnz
  2205  023A  2A3C               	goto	u2271
  2206  023B  07C3               	addwf	___flmul@prod+1,f
  2207  023C                     u2271:
  2208  023C  0838               	movf	??___flmul+2,w
  2209  023D  1103               	clrz
  2210  023E  1803               	skipnc
  2211  023F  3E01               	addlw	1
  2212  0240  1903               	skipnz
  2213  0241  2A43               	goto	u2272
  2214  0242  07C4               	addwf	___flmul@prod+2,f
  2215  0243                     u2272:
  2216  0243  0839               	movf	??___flmul+3,w
  2217  0244  1103               	clrz
  2218  0245  1803               	skipnc
  2219  0246  3E01               	addlw	1
  2220  0247  1903               	skipnz
  2221  0248  2A4A               	goto	u2273
  2222  0249  07C5               	addwf	___flmul@prod+3,f
  2223  024A                     u2273:
  2224  024A  0830               	movf	___flmul@b+2,w
  2225  024B  00B6               	movwf	??___flmul
  2226  024C  0836               	movf	??___flmul,w
  2227  024D  00F5               	movwf	__Umul8_16@multiplicand
  2228  024E  0834               	movf	___flmul@a+2,w
  2229  024F  120A  118A  2726  120A  118A  	fcall	__Umul8_16
  2230  0254  0876               	movf	?__Umul8_16+1,w
  2231  0255  1283               	bcf	3,5	;RP0=0, select bank0
  2232  0256  1303               	bcf	3,6	;RP1=0, select bank0
  2233  0257  00C7               	movwf	___flmul@temp+1
  2234  0258  0875               	movf	?__Umul8_16,w
  2235  0259  00C6               	movwf	___flmul@temp
  2236  025A                     l1699:
  2237  025A  0846               	movf	___flmul@temp,w
  2238  025B  00B6               	movwf	??___flmul
  2239  025C  0847               	movf	___flmul@temp+1,w
  2240  025D  00B7               	movwf	??___flmul+1
  2241  025E  01B8               	clrf	??___flmul+2
  2242  025F  01B9               	clrf	??___flmul+3
  2243  0260  3008               	movlw	8
  2244  0261                     u2285:
  2245  0261  1003               	clrc
  2246  0262  0DB6               	rlf	??___flmul,f
  2247  0263  0DB7               	rlf	??___flmul+1,f
  2248  0264  0DB8               	rlf	??___flmul+2,f
  2249  0265  0DB9               	rlf	??___flmul+3,f
  2250  0266                     u2280:
  2251  0266  3EFF               	addlw	-1
  2252  0267  1D03               	skipz
  2253  0268  2A61               	goto	u2285
  2254  0269  0836               	movf	??___flmul,w
  2255  026A  07C2               	addwf	___flmul@prod,f
  2256  026B  0837               	movf	??___flmul+1,w
  2257  026C  1103               	clrz
  2258  026D  1803               	skipnc
  2259  026E  3E01               	addlw	1
  2260  026F  1903               	skipnz
  2261  0270  2A72               	goto	u2291
  2262  0271  07C3               	addwf	___flmul@prod+1,f
  2263  0272                     u2291:
  2264  0272  0838               	movf	??___flmul+2,w
  2265  0273  1103               	clrz
  2266  0274  1803               	skipnc
  2267  0275  3E01               	addlw	1
  2268  0276  1903               	skipnz
  2269  0277  2A79               	goto	u2292
  2270  0278  07C4               	addwf	___flmul@prod+2,f
  2271  0279                     u2292:
  2272  0279  0839               	movf	??___flmul+3,w
  2273  027A  1103               	clrz
  2274  027B  1803               	skipnc
  2275  027C  3E01               	addlw	1
  2276  027D  1903               	skipnz
  2277  027E  2A80               	goto	u2293
  2278  027F  07C5               	addwf	___flmul@prod+3,f
  2279  0280                     u2293:
  2280  0280                     l1701:
  2281  0280  083D               	movf	___flmul@grs,w
  2282  0281  00B6               	movwf	??___flmul
  2283  0282  083E               	movf	___flmul@grs+1,w
  2284  0283  00B7               	movwf	??___flmul+1
  2285  0284  083F               	movf	___flmul@grs+2,w
  2286  0285  00B8               	movwf	??___flmul+2
  2287  0286  0840               	movf	___flmul@grs+3,w
  2288  0287  00B9               	movwf	??___flmul+3
  2289  0288  3018               	movlw	24
  2290  0289                     u2305:
  2291  0289  1003               	clrc
  2292  028A  0CB9               	rrf	??___flmul+3,f
  2293  028B  0CB8               	rrf	??___flmul+2,f
  2294  028C  0CB7               	rrf	??___flmul+1,f
  2295  028D  0CB6               	rrf	??___flmul,f
  2296  028E                     u2300:
  2297  028E  3EFF               	addlw	-1
  2298  028F  1D03               	skipz
  2299  0290  2A89               	goto	u2305
  2300  0291  0836               	movf	??___flmul,w
  2301  0292  07C2               	addwf	___flmul@prod,f
  2302  0293  0837               	movf	??___flmul+1,w
  2303  0294  1103               	clrz
  2304  0295  1803               	skipnc
  2305  0296  3E01               	addlw	1
  2306  0297  1903               	skipnz
  2307  0298  2A9A               	goto	u2311
  2308  0299  07C3               	addwf	___flmul@prod+1,f
  2309  029A                     u2311:
  2310  029A  0838               	movf	??___flmul+2,w
  2311  029B  1103               	clrz
  2312  029C  1803               	skipnc
  2313  029D  3E01               	addlw	1
  2314  029E  1903               	skipnz
  2315  029F  2AA1               	goto	u2312
  2316  02A0  07C4               	addwf	___flmul@prod+2,f
  2317  02A1                     u2312:
  2318  02A1  0839               	movf	??___flmul+3,w
  2319  02A2  1103               	clrz
  2320  02A3  1803               	skipnc
  2321  02A4  3E01               	addlw	1
  2322  02A5  1903               	skipnz
  2323  02A6  2AA8               	goto	u2313
  2324  02A7  07C5               	addwf	___flmul@prod+3,f
  2325  02A8                     u2313:
  2326  02A8                     l1703:
  2327  02A8  3008               	movlw	8
  2328  02A9  00B6               	movwf	??___flmul
  2329  02AA                     u2325:
  2330  02AA  1003               	clrc
  2331  02AB  0DBD               	rlf	___flmul@grs,f
  2332  02AC  0DBE               	rlf	___flmul@grs+1,f
  2333  02AD  0DBF               	rlf	___flmul@grs+2,f
  2334  02AE  0DC0               	rlf	___flmul@grs+3,f
  2335  02AF  0BB6               	decfsz	??___flmul,f
  2336  02B0  2AAA               	goto	u2325
  2337  02B1                     l1705:
  2338  02B1  0841               	movf	___flmul@bexp,w
  2339  02B2  073C               	addwf	___flmul@aexp,w
  2340  02B3  00B6               	movwf	??___flmul
  2341  02B4  01B7               	clrf	??___flmul+1
  2342  02B5  0DB7               	rlf	??___flmul+1,f
  2343  02B6  0836               	movf	??___flmul,w
  2344  02B7  3E82               	addlw	130
  2345  02B8  00C6               	movwf	___flmul@temp
  2346  02B9  0837               	movf	??___flmul+1,w
  2347  02BA  1803               	skipnc
  2348  02BB  3E01               	addlw	1
  2349  02BC  3EFF               	addlw	255
  2350  02BD  00C7               	movwf	___flmul@temp+1
  2351  02BE  2ADC               	goto	l1717
  2352  02BF                     l1707:
  2353  02BF  3001               	movlw	1
  2354  02C0  00B6               	movwf	??___flmul
  2355  02C1                     u2335:
  2356  02C1  1003               	clrc
  2357  02C2  0DC2               	rlf	___flmul@prod,f
  2358  02C3  0DC3               	rlf	___flmul@prod+1,f
  2359  02C4  0DC4               	rlf	___flmul@prod+2,f
  2360  02C5  0DC5               	rlf	___flmul@prod+3,f
  2361  02C6  0BB6               	decfsz	??___flmul,f
  2362  02C7  2AC1               	goto	u2335
  2363  02C8                     l1709:
  2364  02C8  1FC0               	btfss	___flmul@grs+3,7
  2365  02C9  2ACB               	goto	u2341
  2366  02CA  2ACC               	goto	u2340
  2367  02CB                     u2341:
  2368  02CB  2ACD               	goto	l1713
  2369  02CC                     u2340:
  2370  02CC                     l1711:
  2371  02CC  1442               	bsf	___flmul@prod,0
  2372  02CD                     l1713:
  2373  02CD  3001               	movlw	1
  2374  02CE  00B6               	movwf	??___flmul
  2375  02CF                     u2355:
  2376  02CF  1003               	clrc
  2377  02D0  0DBD               	rlf	___flmul@grs,f
  2378  02D1  0DBE               	rlf	___flmul@grs+1,f
  2379  02D2  0DBF               	rlf	___flmul@grs+2,f
  2380  02D3  0DC0               	rlf	___flmul@grs+3,f
  2381  02D4  0BB6               	decfsz	??___flmul,f
  2382  02D5  2ACF               	goto	u2355
  2383  02D6                     l1715:
  2384  02D6  30FF               	movlw	255
  2385  02D7  07C6               	addwf	___flmul@temp,f
  2386  02D8  1803               	skipnc
  2387  02D9  0AC7               	incf	___flmul@temp+1,f
  2388  02DA  30FF               	movlw	255
  2389  02DB  07C7               	addwf	___flmul@temp+1,f
  2390  02DC                     l1717:
  2391  02DC  1FC4               	btfss	___flmul@prod+2,7
  2392  02DD  2ADF               	goto	u2361
  2393  02DE  2AE0               	goto	u2360
  2394  02DF                     u2361:
  2395  02DF  2ABF               	goto	l1707
  2396  02E0                     u2360:
  2397  02E0                     l1719:
  2398  02E0  01BC               	clrf	___flmul@aexp
  2399  02E1                     l1721:
  2400  02E1  1FC0               	btfss	___flmul@grs+3,7
  2401  02E2  2AE4               	goto	u2371
  2402  02E3  2AE5               	goto	u2370
  2403  02E4                     u2371:
  2404  02E4  2B01               	goto	l1729
  2405  02E5                     u2370:
  2406  02E5                     l1723:
  2407  02E5  30FF               	movlw	255
  2408  02E6  053D               	andwf	___flmul@grs,w
  2409  02E7  00B6               	movwf	??___flmul
  2410  02E8  30FF               	movlw	255
  2411  02E9  053E               	andwf	___flmul@grs+1,w
  2412  02EA  00B7               	movwf	??___flmul+1
  2413  02EB  30FF               	movlw	255
  2414  02EC  053F               	andwf	___flmul@grs+2,w
  2415  02ED  00B8               	movwf	??___flmul+2
  2416  02EE  307F               	movlw	127
  2417  02EF  0540               	andwf	___flmul@grs+3,w
  2418  02F0  00B9               	movwf	??___flmul+3
  2419  02F1  0839               	movf	??___flmul+3,w
  2420  02F2  0438               	iorwf	??___flmul+2,w
  2421  02F3  0437               	iorwf	??___flmul+1,w
  2422  02F4  0436               	iorwf	??___flmul,w
  2423  02F5  1903               	skipnz
  2424  02F6  2AF8               	goto	u2381
  2425  02F7  2AF9               	goto	u2380
  2426  02F8                     u2381:
  2427  02F8  2AFC               	goto	l580
  2428  02F9                     u2380:
  2429  02F9                     l1725:
  2430  02F9  01BC               	clrf	___flmul@aexp
  2431  02FA  0ABC               	incf	___flmul@aexp,f
  2432  02FB  2B01               	goto	l1729
  2433  02FC                     l580:
  2434  02FC  1C42               	btfss	___flmul@prod,0
  2435  02FD  2AFF               	goto	u2391
  2436  02FE  2B00               	goto	u2390
  2437  02FF                     u2391:
  2438  02FF  2B01               	goto	l1729
  2439  0300                     u2390:
  2440  0300  2AF9               	goto	l1725
  2441  0301                     l1729:
  2442  0301  083C               	movf	___flmul@aexp,w
  2443  0302  1903               	btfsc	3,2
  2444  0303  2B05               	goto	u2401
  2445  0304  2B06               	goto	u2400
  2446  0305                     u2401:
  2447  0305  2B37               	goto	l1739
  2448  0306                     u2400:
  2449  0306                     l1731:
  2450  0306  3001               	movlw	1
  2451  0307  07C2               	addwf	___flmul@prod,f
  2452  0308  3000               	movlw	0
  2453  0309  1803               	skipnc
  2454  030A  3001               	movlw	1
  2455  030B  07C3               	addwf	___flmul@prod+1,f
  2456  030C  3000               	movlw	0
  2457  030D  1803               	skipnc
  2458  030E  3001               	movlw	1
  2459  030F  07C4               	addwf	___flmul@prod+2,f
  2460  0310  3000               	movlw	0
  2461  0311  1803               	skipnc
  2462  0312  3001               	movlw	1
  2463  0313  07C5               	addwf	___flmul@prod+3,f
  2464  0314                     l1733:
  2465  0314  1C45               	btfss	___flmul@prod+3,0
  2466  0315  2B17               	goto	u2411
  2467  0316  2B18               	goto	u2410
  2468  0317                     u2411:
  2469  0317  2B37               	goto	l1739
  2470  0318                     u2410:
  2471  0318                     l1735:
  2472  0318  0842               	movf	___flmul@prod,w
  2473  0319  00B6               	movwf	??___flmul
  2474  031A  0843               	movf	___flmul@prod+1,w
  2475  031B  00B7               	movwf	??___flmul+1
  2476  031C  0844               	movf	___flmul@prod+2,w
  2477  031D  00B8               	movwf	??___flmul+2
  2478  031E  0845               	movf	___flmul@prod+3,w
  2479  031F  00B9               	movwf	??___flmul+3
  2480  0320  3001               	movlw	1
  2481  0321  00BA               	movwf	??___flmul+4
  2482  0322                     u2425:
  2483  0322  0D39               	rlf	??___flmul+3,w
  2484  0323  0CB9               	rrf	??___flmul+3,f
  2485  0324  0CB8               	rrf	??___flmul+2,f
  2486  0325  0CB7               	rrf	??___flmul+1,f
  2487  0326  0CB6               	rrf	??___flmul,f
  2488  0327                     u2420:
  2489  0327  0BBA               	decfsz	??___flmul+4,f
  2490  0328  2B22               	goto	u2425
  2491  0329  0839               	movf	??___flmul+3,w
  2492  032A  00C5               	movwf	___flmul@prod+3
  2493  032B  0838               	movf	??___flmul+2,w
  2494  032C  00C4               	movwf	___flmul@prod+2
  2495  032D  0837               	movf	??___flmul+1,w
  2496  032E  00C3               	movwf	___flmul@prod+1
  2497  032F  0836               	movf	??___flmul,w
  2498  0330  00C2               	movwf	___flmul@prod
  2499  0331                     l1737:
  2500  0331  3001               	movlw	1
  2501  0332  07C6               	addwf	___flmul@temp,f
  2502  0333  1803               	skipnc
  2503  0334  0AC7               	incf	___flmul@temp+1,f
  2504  0335  3000               	movlw	0
  2505  0336  07C7               	addwf	___flmul@temp+1,f
  2506  0337                     l1739:
  2507  0337  0847               	movf	___flmul@temp+1,w
  2508  0338  3A80               	xorlw	128
  2509  0339  00FF               	movwf	btemp+1
  2510  033A  3080               	movlw	128
  2511  033B  027F               	subwf	btemp+1,w
  2512  033C  1D03               	skipz
  2513  033D  2B40               	goto	u2435
  2514  033E  30FF               	movlw	255
  2515  033F  0246               	subwf	___flmul@temp,w
  2516  0340                     u2435:
  2517  0340  1C03               	skipc
  2518  0341  2B43               	goto	u2431
  2519  0342  2B44               	goto	u2430
  2520  0343                     u2431:
  2521  0343  2B4F               	goto	l1743
  2522  0344                     u2430:
  2523  0344                     l1741:
  2524  0344  307F               	movlw	127
  2525  0345  1283               	bcf	3,5	;RP0=0, select bank0
  2526  0346  1303               	bcf	3,6	;RP1=0, select bank0
  2527  0347  00C5               	movwf	___flmul@prod+3
  2528  0348  3080               	movlw	128
  2529  0349  00C4               	movwf	___flmul@prod+2
  2530  034A  3000               	movlw	0
  2531  034B  00C3               	movwf	___flmul@prod+1
  2532  034C  3000               	movlw	0
  2533  034D  00C2               	movwf	___flmul@prod
  2534  034E  2B84               	goto	l586
  2535  034F                     l1743:
  2536  034F  1283               	bcf	3,5	;RP0=0, select bank0
  2537  0350  1303               	bcf	3,6	;RP1=0, select bank0
  2538  0351  0847               	movf	___flmul@temp+1,w
  2539  0352  3A80               	xorlw	128
  2540  0353  00FF               	movwf	btemp+1
  2541  0354  3080               	movlw	128
  2542  0355  027F               	subwf	btemp+1,w
  2543  0356  1D03               	skipz
  2544  0357  2B5A               	goto	u2445
  2545  0358  3001               	movlw	1
  2546  0359  0246               	subwf	___flmul@temp,w
  2547  035A                     u2445:
  2548  035A  1803               	skipnc
  2549  035B  2B5D               	goto	u2441
  2550  035C  2B5E               	goto	u2440
  2551  035D                     u2441:
  2552  035D  2B6A               	goto	l1749
  2553  035E                     u2440:
  2554  035E                     l1745:
  2555  035E  3000               	movlw	0
  2556  035F  1283               	bcf	3,5	;RP0=0, select bank0
  2557  0360  1303               	bcf	3,6	;RP1=0, select bank0
  2558  0361  00C5               	movwf	___flmul@prod+3
  2559  0362  3000               	movlw	0
  2560  0363  00C4               	movwf	___flmul@prod+2
  2561  0364  3000               	movlw	0
  2562  0365  00C3               	movwf	___flmul@prod+1
  2563  0366  3000               	movlw	0
  2564  0367  00C2               	movwf	___flmul@prod
  2565  0368                     l1747:
  2566  0368  01BB               	clrf	___flmul@sign
  2567  0369  2B84               	goto	l586
  2568  036A                     l1749:
  2569  036A  1283               	bcf	3,5	;RP0=0, select bank0
  2570  036B  1303               	bcf	3,6	;RP1=0, select bank0
  2571  036C  0846               	movf	___flmul@temp,w
  2572  036D  00B6               	movwf	??___flmul
  2573  036E  0836               	movf	??___flmul,w
  2574  036F  00C1               	movwf	___flmul@bexp
  2575  0370  30FF               	movlw	255
  2576  0371  05C2               	andwf	___flmul@prod,f
  2577  0372  30FF               	movlw	255
  2578  0373  05C3               	andwf	___flmul@prod+1,f
  2579  0374  307F               	movlw	127
  2580  0375  05C4               	andwf	___flmul@prod+2,f
  2581  0376  3000               	movlw	0
  2582  0377  05C5               	andwf	___flmul@prod+3,f
  2583  0378                     l1751:
  2584  0378  1C41               	btfss	___flmul@bexp,0
  2585  0379  2B7B               	goto	u2451
  2586  037A  2B7C               	goto	u2450
  2587  037B                     u2451:
  2588  037B  2B7D               	goto	l1755
  2589  037C                     u2450:
  2590  037C                     l1753:
  2591  037C  17C4               	bsf	___flmul@prod+2,7
  2592  037D                     l1755:
  2593  037D  0841               	movf	___flmul@bexp,w
  2594  037E  00B6               	movwf	??___flmul
  2595  037F  1003               	clrc
  2596  0380  0C36               	rrf	??___flmul,w
  2597  0381  00B7               	movwf	??___flmul+1
  2598  0382  0837               	movf	??___flmul+1,w
  2599  0383  00C5               	movwf	___flmul@prod+3
  2600  0384                     l586:
  2601  0384  083B               	movf	___flmul@sign,w
  2602  0385  00B6               	movwf	??___flmul
  2603  0386  0836               	movf	??___flmul,w
  2604  0387  04C5               	iorwf	___flmul@prod+3,f
  2605  0388                     l1757:
  2606  0388  0845               	movf	___flmul@prod+3,w
  2607  0389  00B1               	movwf	?___flmul+3
  2608  038A  0844               	movf	___flmul@prod+2,w
  2609  038B  00B0               	movwf	?___flmul+2
  2610  038C  0843               	movf	___flmul@prod+1,w
  2611  038D  00AF               	movwf	?___flmul+1
  2612  038E  0842               	movf	___flmul@prod,w
  2613  038F  00AE               	movwf	?___flmul
  2614  0390                     l574:
  2615  0390  0008               	return
  2616  0391                     __end_of___flmul:
  2617                           
  2618                           	psect	text7
  2619  0726                     __ptext7:	
  2620 ;; *************** function __Umul8_16 *****************
  2621 ;; Defined at:
  2622 ;;		line 4 in file "C:\Program Files\Microchip\xc8\v2.35\pic\sources\c90\common\Umul8_16.c"
  2623 ;; Parameters:    Size  Location     Type
  2624 ;;  multiplier      1    wreg     unsigned char 
  2625 ;;  multiplicand    1    5[COMMON] unsigned char 
  2626 ;; Auto vars:     Size  Location     Type
  2627 ;;  multiplier      1    6[BANK0 ] unsigned char 
  2628 ;;  word_mpld       2    4[BANK0 ] unsigned int 
  2629 ;;  product         2    2[BANK0 ] unsigned int 
  2630 ;; Return value:  Size  Location     Type
  2631 ;;                  2    5[COMMON] unsigned int 
  2632 ;; Registers used:
  2633 ;;		wreg, status,2, status,0
  2634 ;; Tracked objects:
  2635 ;;		On entry : 0/0
  2636 ;;		On exit  : 0/0
  2637 ;;		Unchanged: 0/0
  2638 ;; Data sizes:     COMMON   BANK0   BANK1   BANK3   BANK2
  2639 ;;      Params:         2       0       0       0       0
  2640 ;;      Locals:         0       5       0       0       0
  2641 ;;      Temps:          0       2       0       0       0
  2642 ;;      Totals:         2       7       0       0       0
  2643 ;;Total ram usage:        9 bytes
  2644 ;; Hardware stack levels used: 1
  2645 ;; Hardware stack levels required when called: 1
  2646 ;; This function calls:
  2647 ;;		Nothing
  2648 ;; This function is called by:
  2649 ;;		___flmul
  2650 ;; This function uses a non-reentrant model
  2651 ;;
  2652                           
  2653  0726                     __Umul8_16:	
  2654                           ;psect for function __Umul8_16
  2655                           
  2656                           
  2657                           ;incstack = 0
  2658                           ; Regs used in __Umul8_16: [wreg+status,2+status,0]
  2659                           ;__Umul8_16@multiplier stored from wreg
  2660  0726  1283               	bcf	3,5	;RP0=0, select bank0
  2661  0727  1303               	bcf	3,6	;RP1=0, select bank0
  2662  0728  00A6               	movwf	__Umul8_16@multiplier
  2663  0729                     l1525:
  2664  0729  01A2               	clrf	__Umul8_16@product
  2665  072A  01A3               	clrf	__Umul8_16@product+1
  2666  072B                     l1527:
  2667  072B  0875               	movf	__Umul8_16@multiplicand,w
  2668  072C  00A0               	movwf	??__Umul8_16
  2669  072D  01A1               	clrf	??__Umul8_16+1
  2670  072E  0820               	movf	??__Umul8_16,w
  2671  072F  00A4               	movwf	__Umul8_16@word_mpld
  2672  0730  0821               	movf	??__Umul8_16+1,w
  2673  0731  00A5               	movwf	__Umul8_16@word_mpld+1
  2674  0732                     l1529:
  2675  0732  1C26               	btfss	__Umul8_16@multiplier,0
  2676  0733  2F35               	goto	u1871
  2677  0734  2F36               	goto	u1870
  2678  0735                     u1871:
  2679  0735  2F3C               	goto	l593
  2680  0736                     u1870:
  2681  0736                     l1531:
  2682  0736  0824               	movf	__Umul8_16@word_mpld,w
  2683  0737  07A2               	addwf	__Umul8_16@product,f
  2684  0738  1803               	skipnc
  2685  0739  0AA3               	incf	__Umul8_16@product+1,f
  2686  073A  0825               	movf	__Umul8_16@word_mpld+1,w
  2687  073B  07A3               	addwf	__Umul8_16@product+1,f
  2688  073C                     l593:
  2689  073C  3001               	movlw	1
  2690  073D                     u1885:
  2691  073D  1003               	clrc
  2692  073E  0DA4               	rlf	__Umul8_16@word_mpld,f
  2693  073F  0DA5               	rlf	__Umul8_16@word_mpld+1,f
  2694  0740  3EFF               	addlw	-1
  2695  0741  1D03               	skipz
  2696  0742  2F3D               	goto	u1885
  2697  0743  1003               	clrc
  2698  0744  0CA6               	rrf	__Umul8_16@multiplier,f
  2699  0745                     l1533:
  2700  0745  0826               	movf	__Umul8_16@multiplier,w
  2701  0746  1D03               	btfss	3,2
  2702  0747  2F49               	goto	u1891
  2703  0748  2F4A               	goto	u1890
  2704  0749                     u1891:
  2705  0749  2F32               	goto	l1529
  2706  074A                     u1890:
  2707  074A                     l1535:
  2708  074A  0823               	movf	__Umul8_16@product+1,w
  2709  074B  00F6               	movwf	?__Umul8_16+1
  2710  074C  0822               	movf	__Umul8_16@product,w
  2711  074D  00F5               	movwf	?__Umul8_16
  2712  074E                     l595:
  2713  074E  0008               	return
  2714  074F                     __end_of__Umul8_16:
  2715                           
  2716                           	psect	text8
  2717  064F                     __ptext8:	
  2718 ;; *************** function ___awmod *****************
  2719 ;; Defined at:
  2720 ;;		line 5 in file "C:\Program Files\Microchip\xc8\v2.35\pic\sources\c90\common\awmod.c"
  2721 ;; Parameters:    Size  Location     Type
  2722 ;;  divisor         2    0[BANK0 ] int 
  2723 ;;  dividend        2    2[BANK0 ] int 
  2724 ;; Auto vars:     Size  Location     Type
  2725 ;;  sign            1    5[BANK0 ] unsigned char 
  2726 ;;  counter         1    4[BANK0 ] unsigned char 
  2727 ;; Return value:  Size  Location     Type
  2728 ;;                  2    0[BANK0 ] int 
  2729 ;; Registers used:
  2730 ;;		wreg, status,2, status,0
  2731 ;; Tracked objects:
  2732 ;;		On entry : 0/0
  2733 ;;		On exit  : 0/0
  2734 ;;		Unchanged: 0/0
  2735 ;; Data sizes:     COMMON   BANK0   BANK1   BANK3   BANK2
  2736 ;;      Params:         0       4       0       0       0
  2737 ;;      Locals:         0       2       0       0       0
  2738 ;;      Temps:          1       0       0       0       0
  2739 ;;      Totals:         1       6       0       0       0
  2740 ;;Total ram usage:        7 bytes
  2741 ;; Hardware stack levels used: 1
  2742 ;; Hardware stack levels required when called: 1
  2743 ;; This function calls:
  2744 ;;		Nothing
  2745 ;; This function is called by:
  2746 ;;		_digits
  2747 ;; This function uses a non-reentrant model
  2748 ;;
  2749                           
  2750  064F                     ___awmod:	
  2751                           ;psect for function ___awmod
  2752                           
  2753  064F                     l1583:	
  2754                           ;incstack = 0
  2755                           ; Regs used in ___awmod: [wreg+status,2+status,0]
  2756                           
  2757  064F  1283               	bcf	3,5	;RP0=0, select bank0
  2758  0650  1303               	bcf	3,6	;RP1=0, select bank0
  2759  0651  01A5               	clrf	___awmod@sign
  2760  0652                     l1585:
  2761  0652  1FA3               	btfss	___awmod@dividend+1,7
  2762  0653  2E55               	goto	u2001
  2763  0654  2E56               	goto	u2000
  2764  0655                     u2001:
  2765  0655  2E5D               	goto	l1591
  2766  0656                     u2000:
  2767  0656                     l1587:
  2768  0656  09A2               	comf	___awmod@dividend,f
  2769  0657  09A3               	comf	___awmod@dividend+1,f
  2770  0658  0AA2               	incf	___awmod@dividend,f
  2771  0659  1903               	skipnz
  2772  065A  0AA3               	incf	___awmod@dividend+1,f
  2773  065B                     l1589:
  2774  065B  01A5               	clrf	___awmod@sign
  2775  065C  0AA5               	incf	___awmod@sign,f
  2776  065D                     l1591:
  2777  065D  1FA1               	btfss	___awmod@divisor+1,7
  2778  065E  2E60               	goto	u2011
  2779  065F  2E61               	goto	u2010
  2780  0660                     u2011:
  2781  0660  2E66               	goto	l1595
  2782  0661                     u2010:
  2783  0661                     l1593:
  2784  0661  09A0               	comf	___awmod@divisor,f
  2785  0662  09A1               	comf	___awmod@divisor+1,f
  2786  0663  0AA0               	incf	___awmod@divisor,f
  2787  0664  1903               	skipnz
  2788  0665  0AA1               	incf	___awmod@divisor+1,f
  2789  0666                     l1595:
  2790  0666  0820               	movf	___awmod@divisor,w
  2791  0667  0421               	iorwf	___awmod@divisor+1,w
  2792  0668  1903               	btfsc	3,2
  2793  0669  2E6B               	goto	u2021
  2794  066A  2E6C               	goto	u2020
  2795  066B                     u2021:
  2796  066B  2E9B               	goto	l1613
  2797  066C                     u2020:
  2798  066C                     l1597:
  2799  066C  01A4               	clrf	___awmod@counter
  2800  066D  0AA4               	incf	___awmod@counter,f
  2801  066E  2E7A               	goto	l1603
  2802  066F                     l1599:
  2803  066F  3001               	movlw	1
  2804  0670                     u2035:
  2805  0670  1003               	clrc
  2806  0671  0DA0               	rlf	___awmod@divisor,f
  2807  0672  0DA1               	rlf	___awmod@divisor+1,f
  2808  0673  3EFF               	addlw	-1
  2809  0674  1D03               	skipz
  2810  0675  2E70               	goto	u2035
  2811  0676                     l1601:
  2812  0676  3001               	movlw	1
  2813  0677  00F5               	movwf	??___awmod
  2814  0678  0875               	movf	??___awmod,w
  2815  0679  07A4               	addwf	___awmod@counter,f
  2816  067A                     l1603:
  2817  067A  1FA1               	btfss	___awmod@divisor+1,7
  2818  067B  2E7D               	goto	u2041
  2819  067C  2E7E               	goto	u2040
  2820  067D                     u2041:
  2821  067D  2E6F               	goto	l1599
  2822  067E                     u2040:
  2823  067E                     l1605:
  2824  067E  0821               	movf	___awmod@divisor+1,w
  2825  067F  0223               	subwf	___awmod@dividend+1,w
  2826  0680  1D03               	skipz
  2827  0681  2E84               	goto	u2055
  2828  0682  0820               	movf	___awmod@divisor,w
  2829  0683  0222               	subwf	___awmod@dividend,w
  2830  0684                     u2055:
  2831  0684  1C03               	skipc
  2832  0685  2E87               	goto	u2051
  2833  0686  2E88               	goto	u2050
  2834  0687                     u2051:
  2835  0687  2E8E               	goto	l1609
  2836  0688                     u2050:
  2837  0688                     l1607:
  2838  0688  0820               	movf	___awmod@divisor,w
  2839  0689  02A2               	subwf	___awmod@dividend,f
  2840  068A  0821               	movf	___awmod@divisor+1,w
  2841  068B  1C03               	skipc
  2842  068C  03A3               	decf	___awmod@dividend+1,f
  2843  068D  02A3               	subwf	___awmod@dividend+1,f
  2844  068E                     l1609:
  2845  068E  3001               	movlw	1
  2846  068F                     u2065:
  2847  068F  1003               	clrc
  2848  0690  0CA1               	rrf	___awmod@divisor+1,f
  2849  0691  0CA0               	rrf	___awmod@divisor,f
  2850  0692  3EFF               	addlw	-1
  2851  0693  1D03               	skipz
  2852  0694  2E8F               	goto	u2065
  2853  0695                     l1611:
  2854  0695  3001               	movlw	1
  2855  0696  02A4               	subwf	___awmod@counter,f
  2856  0697  1D03               	btfss	3,2
  2857  0698  2E9A               	goto	u2071
  2858  0699  2E9B               	goto	u2070
  2859  069A                     u2071:
  2860  069A  2E7E               	goto	l1605
  2861  069B                     u2070:
  2862  069B                     l1613:
  2863  069B  0825               	movf	___awmod@sign,w
  2864  069C  1903               	btfsc	3,2
  2865  069D  2E9F               	goto	u2081
  2866  069E  2EA0               	goto	u2080
  2867  069F                     u2081:
  2868  069F  2EA5               	goto	l1617
  2869  06A0                     u2080:
  2870  06A0                     l1615:
  2871  06A0  09A2               	comf	___awmod@dividend,f
  2872  06A1  09A3               	comf	___awmod@dividend+1,f
  2873  06A2  0AA2               	incf	___awmod@dividend,f
  2874  06A3  1903               	skipnz
  2875  06A4  0AA3               	incf	___awmod@dividend+1,f
  2876  06A5                     l1617:
  2877  06A5  0823               	movf	___awmod@dividend+1,w
  2878  06A6  00A1               	movwf	?___awmod+1
  2879  06A7  0822               	movf	___awmod@dividend,w
  2880  06A8  00A0               	movwf	?___awmod
  2881  06A9                     l351:
  2882  06A9  0008               	return
  2883  06AA                     __end_of___awmod:
  2884                           
  2885                           	psect	text9
  2886  05E6                     __ptext9:	
  2887 ;; *************** function ___awdiv *****************
  2888 ;; Defined at:
  2889 ;;		line 5 in file "C:\Program Files\Microchip\xc8\v2.35\pic\sources\c90\common\awdiv.c"
  2890 ;; Parameters:    Size  Location     Type
  2891 ;;  divisor         2    0[BANK0 ] int 
  2892 ;;  dividend        2    2[BANK0 ] int 
  2893 ;; Auto vars:     Size  Location     Type
  2894 ;;  quotient        2    6[BANK0 ] int 
  2895 ;;  sign            1    5[BANK0 ] unsigned char 
  2896 ;;  counter         1    4[BANK0 ] unsigned char 
  2897 ;; Return value:  Size  Location     Type
  2898 ;;                  2    0[BANK0 ] int 
  2899 ;; Registers used:
  2900 ;;		wreg, status,2, status,0
  2901 ;; Tracked objects:
  2902 ;;		On entry : 0/0
  2903 ;;		On exit  : 0/0
  2904 ;;		Unchanged: 0/0
  2905 ;; Data sizes:     COMMON   BANK0   BANK1   BANK3   BANK2
  2906 ;;      Params:         0       4       0       0       0
  2907 ;;      Locals:         0       4       0       0       0
  2908 ;;      Temps:          1       0       0       0       0
  2909 ;;      Totals:         1       8       0       0       0
  2910 ;;Total ram usage:        9 bytes
  2911 ;; Hardware stack levels used: 1
  2912 ;; Hardware stack levels required when called: 1
  2913 ;; This function calls:
  2914 ;;		Nothing
  2915 ;; This function is called by:
  2916 ;;		_digits
  2917 ;; This function uses a non-reentrant model
  2918 ;;
  2919                           
  2920  05E6                     ___awdiv:	
  2921                           ;psect for function ___awdiv
  2922                           
  2923  05E6                     l1539:	
  2924                           ;incstack = 0
  2925                           ; Regs used in ___awdiv: [wreg+status,2+status,0]
  2926                           
  2927  05E6  1283               	bcf	3,5	;RP0=0, select bank0
  2928  05E7  1303               	bcf	3,6	;RP1=0, select bank0
  2929  05E8  01A5               	clrf	___awdiv@sign
  2930  05E9                     l1541:
  2931  05E9  1FA1               	btfss	___awdiv@divisor+1,7
  2932  05EA  2DEC               	goto	u1901
  2933  05EB  2DED               	goto	u1900
  2934  05EC                     u1901:
  2935  05EC  2DF4               	goto	l1547
  2936  05ED                     u1900:
  2937  05ED                     l1543:
  2938  05ED  09A0               	comf	___awdiv@divisor,f
  2939  05EE  09A1               	comf	___awdiv@divisor+1,f
  2940  05EF  0AA0               	incf	___awdiv@divisor,f
  2941  05F0  1903               	skipnz
  2942  05F1  0AA1               	incf	___awdiv@divisor+1,f
  2943  05F2                     l1545:
  2944  05F2  01A5               	clrf	___awdiv@sign
  2945  05F3  0AA5               	incf	___awdiv@sign,f
  2946  05F4                     l1547:
  2947  05F4  1FA3               	btfss	___awdiv@dividend+1,7
  2948  05F5  2DF7               	goto	u1911
  2949  05F6  2DF8               	goto	u1910
  2950  05F7                     u1911:
  2951  05F7  2E01               	goto	l1553
  2952  05F8                     u1910:
  2953  05F8                     l1549:
  2954  05F8  09A2               	comf	___awdiv@dividend,f
  2955  05F9  09A3               	comf	___awdiv@dividend+1,f
  2956  05FA  0AA2               	incf	___awdiv@dividend,f
  2957  05FB  1903               	skipnz
  2958  05FC  0AA3               	incf	___awdiv@dividend+1,f
  2959  05FD                     l1551:
  2960  05FD  3001               	movlw	1
  2961  05FE  00F5               	movwf	??___awdiv
  2962  05FF  0875               	movf	??___awdiv,w
  2963  0600  06A5               	xorwf	___awdiv@sign,f
  2964  0601                     l1553:
  2965  0601  01A6               	clrf	___awdiv@quotient
  2966  0602  01A7               	clrf	___awdiv@quotient+1
  2967  0603                     l1555:
  2968  0603  0820               	movf	___awdiv@divisor,w
  2969  0604  0421               	iorwf	___awdiv@divisor+1,w
  2970  0605  1903               	btfsc	3,2
  2971  0606  2E08               	goto	u1921
  2972  0607  2E09               	goto	u1920
  2973  0608                     u1921:
  2974  0608  2E40               	goto	l1575
  2975  0609                     u1920:
  2976  0609                     l1557:
  2977  0609  01A4               	clrf	___awdiv@counter
  2978  060A  0AA4               	incf	___awdiv@counter,f
  2979  060B  2E17               	goto	l1563
  2980  060C                     l1559:
  2981  060C  3001               	movlw	1
  2982  060D                     u1935:
  2983  060D  1003               	clrc
  2984  060E  0DA0               	rlf	___awdiv@divisor,f
  2985  060F  0DA1               	rlf	___awdiv@divisor+1,f
  2986  0610  3EFF               	addlw	-1
  2987  0611  1D03               	skipz
  2988  0612  2E0D               	goto	u1935
  2989  0613                     l1561:
  2990  0613  3001               	movlw	1
  2991  0614  00F5               	movwf	??___awdiv
  2992  0615  0875               	movf	??___awdiv,w
  2993  0616  07A4               	addwf	___awdiv@counter,f
  2994  0617                     l1563:
  2995  0617  1FA1               	btfss	___awdiv@divisor+1,7
  2996  0618  2E1A               	goto	u1941
  2997  0619  2E1B               	goto	u1940
  2998  061A                     u1941:
  2999  061A  2E0C               	goto	l1559
  3000  061B                     u1940:
  3001  061B                     l1565:
  3002  061B  3001               	movlw	1
  3003  061C                     u1955:
  3004  061C  1003               	clrc
  3005  061D  0DA6               	rlf	___awdiv@quotient,f
  3006  061E  0DA7               	rlf	___awdiv@quotient+1,f
  3007  061F  3EFF               	addlw	-1
  3008  0620  1D03               	skipz
  3009  0621  2E1C               	goto	u1955
  3010  0622  0821               	movf	___awdiv@divisor+1,w
  3011  0623  0223               	subwf	___awdiv@dividend+1,w
  3012  0624  1D03               	skipz
  3013  0625  2E28               	goto	u1965
  3014  0626  0820               	movf	___awdiv@divisor,w
  3015  0627  0222               	subwf	___awdiv@dividend,w
  3016  0628                     u1965:
  3017  0628  1C03               	skipc
  3018  0629  2E2B               	goto	u1961
  3019  062A  2E2C               	goto	u1960
  3020  062B                     u1961:
  3021  062B  2E33               	goto	l1571
  3022  062C                     u1960:
  3023  062C                     l1567:
  3024  062C  0820               	movf	___awdiv@divisor,w
  3025  062D  02A2               	subwf	___awdiv@dividend,f
  3026  062E  0821               	movf	___awdiv@divisor+1,w
  3027  062F  1C03               	skipc
  3028  0630  03A3               	decf	___awdiv@dividend+1,f
  3029  0631  02A3               	subwf	___awdiv@dividend+1,f
  3030  0632                     l1569:
  3031  0632  1426               	bsf	___awdiv@quotient,0
  3032  0633                     l1571:
  3033  0633  3001               	movlw	1
  3034  0634                     u1975:
  3035  0634  1003               	clrc
  3036  0635  0CA1               	rrf	___awdiv@divisor+1,f
  3037  0636  0CA0               	rrf	___awdiv@divisor,f
  3038  0637  3EFF               	addlw	-1
  3039  0638  1D03               	skipz
  3040  0639  2E34               	goto	u1975
  3041  063A                     l1573:
  3042  063A  3001               	movlw	1
  3043  063B  02A4               	subwf	___awdiv@counter,f
  3044  063C  1D03               	btfss	3,2
  3045  063D  2E3F               	goto	u1981
  3046  063E  2E40               	goto	u1980
  3047  063F                     u1981:
  3048  063F  2E1B               	goto	l1565
  3049  0640                     u1980:
  3050  0640                     l1575:
  3051  0640  0825               	movf	___awdiv@sign,w
  3052  0641  1903               	btfsc	3,2
  3053  0642  2E44               	goto	u1991
  3054  0643  2E45               	goto	u1990
  3055  0644                     u1991:
  3056  0644  2E4A               	goto	l1579
  3057  0645                     u1990:
  3058  0645                     l1577:
  3059  0645  09A6               	comf	___awdiv@quotient,f
  3060  0646  09A7               	comf	___awdiv@quotient+1,f
  3061  0647  0AA6               	incf	___awdiv@quotient,f
  3062  0648  1903               	skipnz
  3063  0649  0AA7               	incf	___awdiv@quotient+1,f
  3064  064A                     l1579:
  3065  064A  0827               	movf	___awdiv@quotient+1,w
  3066  064B  00A1               	movwf	?___awdiv+1
  3067  064C  0826               	movf	___awdiv@quotient,w
  3068  064D  00A0               	movwf	?___awdiv
  3069  064E                     l338:
  3070  064E  0008               	return
  3071  064F                     __end_of___awdiv:
  3072                           
  3073                           	psect	text10
  3074  0578                     __ptext10:	
  3075 ;; *************** function _isr *****************
  3076 ;; Defined at:
  3077 ;;		line 124 in file "lab08_main-20168.c"
  3078 ;; Parameters:    Size  Location     Type
  3079 ;;		None
  3080 ;; Auto vars:     Size  Location     Type
  3081 ;;		None
  3082 ;; Return value:  Size  Location     Type
  3083 ;;                  1    wreg      void 
  3084 ;; Registers used:
  3085 ;;		wreg, fsr0l, fsr0h, status,2, status,0
  3086 ;; Tracked objects:
  3087 ;;		On entry : 0/0
  3088 ;;		On exit  : 0/0
  3089 ;;		Unchanged: 0/0
  3090 ;; Data sizes:     COMMON   BANK0   BANK1   BANK3   BANK2
  3091 ;;      Params:         0       0       0       0       0
  3092 ;;      Locals:         0       0       0       0       0
  3093 ;;      Temps:          5       0       0       0       0
  3094 ;;      Totals:         5       0       0       0       0
  3095 ;;Total ram usage:        5 bytes
  3096 ;; Hardware stack levels used: 1
  3097 ;; This function calls:
  3098 ;;		Nothing
  3099 ;; This function is called by:
  3100 ;;		Interrupt level 1
  3101 ;; This function uses a non-reentrant model
  3102 ;;
  3103                           
  3104  0578                     _isr:	
  3105                           ;psect for function _isr
  3106                           
  3107  0578                     i1l1455:
  3108                           
  3109                           ;lab08_main-20168.c: 125:     if (PIR1bits.ADIF){
  3110  0578  1283               	bcf	3,5	;RP0=0, select bank0
  3111  0579  1303               	bcf	3,6	;RP1=0, select bank0
  3112  057A  1F0C               	btfss	12,6	;volatile
  3113  057B  2D7D               	goto	u177_21
  3114  057C  2D7E               	goto	u177_20
  3115  057D                     u177_21:
  3116  057D  2D9C               	goto	i1l76
  3117  057E                     u177_20:
  3118  057E                     i1l1457:
  3119                           
  3120                           ;lab08_main-20168.c: 126:         if (ADCON0bits.CHS == 0){
  3121  057E  0C1F               	rrf	31,w	;volatile
  3122  057F  00F0               	movwf	??_isr
  3123  0580  0C70               	rrf	??_isr,w
  3124  0581  390F               	andlw	15
  3125  0582  3A00               	xorlw	0
  3126  0583  1D03               	skipz
  3127  0584  2D86               	goto	u178_21
  3128  0585  2D87               	goto	u178_20
  3129  0586                     u178_21:
  3130  0586  2D8F               	goto	i1l1461
  3131  0587                     u178_20:
  3132  0587                     i1l1459:
  3133                           
  3134                           ;lab08_main-20168.c: 127:             var = ADRESH;
  3135  0587  081E               	movf	30,w	;volatile
  3136  0588  00F0               	movwf	??_isr
  3137  0589  01F1               	clrf	??_isr+1
  3138  058A  0870               	movf	??_isr,w
  3139  058B  00E2               	movwf	_var
  3140  058C  0871               	movf	??_isr+1,w
  3141  058D  00E3               	movwf	_var+1
  3142                           
  3143                           ;lab08_main-20168.c: 128:         }
  3144  058E  2D9A               	goto	i1l1465
  3145  058F                     i1l1461:
  3146  058F  0C1F               	rrf	31,w	;volatile
  3147  0590  00F0               	movwf	??_isr
  3148  0591  0C70               	rrf	??_isr,w
  3149  0592  390F               	andlw	15
  3150  0593  3A01               	xorlw	1
  3151  0594  1D03               	skipz
  3152  0595  2D97               	goto	u179_21
  3153  0596  2D98               	goto	u179_20
  3154  0597                     u179_21:
  3155  0597  2D9A               	goto	i1l1465
  3156  0598                     u179_20:
  3157  0598                     i1l1463:
  3158                           
  3159                           ;lab08_main-20168.c: 130:             PORTD = ADRESH;
  3160  0598  081E               	movf	30,w	;volatile
  3161  0599  0088               	movwf	8	;volatile
  3162  059A                     i1l1465:
  3163                           
  3164                           ;lab08_main-20168.c: 132:         PIR1bits.ADIF = 0;
  3165  059A  130C               	bcf	12,6	;volatile
  3166                           
  3167                           ;lab08_main-20168.c: 133:     }
  3168  059B  2DDD               	goto	i1l87
  3169  059C                     i1l76:	
  3170                           ;lab08_main-20168.c: 135:     else if(T0IF){
  3171                           
  3172  059C  1D0B               	btfss	11,2	;volatile
  3173  059D  2D9F               	goto	u180_21
  3174  059E  2DA0               	goto	u180_20
  3175  059F                     u180_21:
  3176  059F  2DDD               	goto	i1l87
  3177  05A0                     u180_20:
  3178  05A0                     i1l1467:
  3179                           
  3180                           ;lab08_main-20168.c: 136:         INTCONbits.T0IF = 0;
  3181  05A0  110B               	bcf	11,2	;volatile
  3182  05A1                     i1l1469:
  3183                           
  3184                           ;lab08_main-20168.c: 137:         TMR0 = 248;
  3185  05A1  30F8               	movlw	248
  3186  05A2  0081               	movwf	1	;volatile
  3187  05A3                     i1l1471:
  3188                           
  3189                           ;lab08_main-20168.c: 138:         PORTE = 0;
  3190  05A3  0189               	clrf	9	;volatile
  3191  05A4                     i1l1473:
  3192                           
  3193                           ;lab08_main-20168.c: 139:         if (disp_flag == 0){
  3194  05A4  0877               	movf	_disp_flag,w
  3195  05A5  0478               	iorwf	_disp_flag+1,w
  3196  05A6  1D03               	btfss	3,2
  3197  05A7  2DA9               	goto	u181_21
  3198  05A8  2DAA               	goto	u181_20
  3199  05A9                     u181_21:
  3200  05A9  2DB7               	goto	i1l1483
  3201  05AA                     u181_20:
  3202  05AA                     i1l1475:
  3203                           
  3204                           ;lab08_main-20168.c: 140:             PORTC = (index[ones]);
  3205  05AA  085A               	movf	_ones,w
  3206  05AB  3E65               	addlw	(low (_index| 0))& (0+255)
  3207  05AC  0084               	movwf	4
  3208  05AD  1383               	bcf	3,7	;select IRP bank0
  3209  05AE  0800               	movf	0,w
  3210  05AF  0087               	movwf	7	;volatile
  3211  05B0                     i1l1477:
  3212                           
  3213                           ;lab08_main-20168.c: 141:             PORTEbits.RE0 = 0;
  3214  05B0  1009               	bcf	9,0	;volatile
  3215  05B1                     i1l1479:
  3216                           
  3217                           ;lab08_main-20168.c: 142:             PORTEbits.RE2 = 1;
  3218  05B1  1509               	bsf	9,2	;volatile
  3219  05B2                     i1l1481:
  3220                           
  3221                           ;lab08_main-20168.c: 143:             disp_flag = 1;
  3222  05B2  3001               	movlw	1
  3223  05B3  00F7               	movwf	_disp_flag
  3224  05B4  3000               	movlw	0
  3225  05B5  00F8               	movwf	_disp_flag+1
  3226                           
  3227                           ;lab08_main-20168.c: 144:         }
  3228  05B6  2DDD               	goto	i1l87
  3229  05B7                     i1l1483:
  3230  05B7  0377               	decf	_disp_flag,w
  3231  05B8  0478               	iorwf	_disp_flag+1,w
  3232  05B9  1D03               	btfss	3,2
  3233  05BA  2DBC               	goto	u182_21
  3234  05BB  2DBD               	goto	u182_20
  3235  05BC                     u182_21:
  3236  05BC  2DCA               	goto	i1l1493
  3237  05BD                     u182_20:
  3238  05BD                     i1l1485:
  3239                           
  3240                           ;lab08_main-20168.c: 146:             PORTC = (index[tens]);
  3241  05BD  085C               	movf	_tens,w
  3242  05BE  3E65               	addlw	(low (_index| 0))& (0+255)
  3243  05BF  0084               	movwf	4
  3244  05C0  1383               	bcf	3,7	;select IRP bank0
  3245  05C1  0800               	movf	0,w
  3246  05C2  0087               	movwf	7	;volatile
  3247  05C3                     i1l1487:
  3248                           
  3249                           ;lab08_main-20168.c: 147:             PORTEbits.RE2 = 0;
  3250  05C3  1109               	bcf	9,2	;volatile
  3251  05C4                     i1l1489:
  3252                           
  3253                           ;lab08_main-20168.c: 148:             PORTEbits.RE1 = 1;
  3254  05C4  1489               	bsf	9,1	;volatile
  3255  05C5                     i1l1491:
  3256                           
  3257                           ;lab08_main-20168.c: 149:             disp_flag = 2;
  3258  05C5  3002               	movlw	2
  3259  05C6  00F7               	movwf	_disp_flag
  3260  05C7  3000               	movlw	0
  3261  05C8  00F8               	movwf	_disp_flag+1
  3262                           
  3263                           ;lab08_main-20168.c: 150:         }
  3264  05C9  2DDD               	goto	i1l87
  3265  05CA                     i1l1493:
  3266  05CA  3002               	movlw	2
  3267  05CB  0677               	xorwf	_disp_flag,w
  3268  05CC  0478               	iorwf	_disp_flag+1,w
  3269  05CD  1D03               	btfss	3,2
  3270  05CE  2DD0               	goto	u183_21
  3271  05CF  2DD1               	goto	u183_20
  3272  05D0                     u183_21:
  3273  05D0  2DDD               	goto	i1l81
  3274  05D1                     u183_20:
  3275  05D1                     i1l1495:
  3276                           
  3277                           ;lab08_main-20168.c: 152:             PORTC = (index[huns]);
  3278  05D1  085E               	movf	_huns,w
  3279  05D2  3E65               	addlw	(low (_index| 0))& (0+255)
  3280  05D3  0084               	movwf	4
  3281  05D4  1383               	bcf	3,7	;select IRP bank0
  3282  05D5  0800               	movf	0,w
  3283  05D6  0087               	movwf	7	;volatile
  3284  05D7                     i1l1497:
  3285                           
  3286                           ;lab08_main-20168.c: 153:             PORTCbits.RC7 = 1;
  3287  05D7  1787               	bsf	7,7	;volatile
  3288  05D8                     i1l1499:
  3289                           
  3290                           ;lab08_main-20168.c: 154:             PORTEbits.RE1 = 0;
  3291  05D8  1089               	bcf	9,1	;volatile
  3292  05D9                     i1l1501:
  3293                           
  3294                           ;lab08_main-20168.c: 155:             PORTEbits.RE0 = 1;
  3295  05D9  1409               	bsf	9,0	;volatile
  3296  05DA                     i1l1503:
  3297                           
  3298                           ;lab08_main-20168.c: 156:             disp_flag = 0;
  3299  05DA  01F7               	clrf	_disp_flag
  3300  05DB  01F8               	clrf	_disp_flag+1
  3301  05DC  2DDD               	goto	i1l87
  3302  05DD                     i1l81:	
  3303                           ;lab08_main-20168.c: 158:     }
  3304                           
  3305  05DD                     i1l87:
  3306  05DD  0874               	movf	??_isr+4,w
  3307  05DE  008A               	movwf	10
  3308  05DF  0873               	movf	??_isr+3,w
  3309  05E0  0084               	movwf	4
  3310  05E1  0E72               	swapf	??_isr+2,w
  3311  05E2  0083               	movwf	3
  3312  05E3  0EFE               	swapf	btemp,f
  3313  05E4  0E7E               	swapf	btemp,w
  3314  05E5  0009               	retfie
  3315  05E6                     __end_of_isr:
  3316  007E                     btemp	set	126	;btemp
  3317  007E                     wtemp0	set	126
  3318                           
  3319                           	psect	intentry
  3320  0004                     __pintentry:	
  3321                           ;incstack = 0
  3322                           ; Regs used in _isr: [wreg-fsr0h+status,2+status,0]
  3323                           
  3324  0004                     interrupt_function:
  3325  007E                     saved_w	set	btemp
  3326  0004  00FE               	movwf	btemp
  3327  0005  0E03               	swapf	3,w
  3328  0006  00F2               	movwf	??_isr+2
  3329  0007  0804               	movf	4,w
  3330  0008  00F3               	movwf	??_isr+3
  3331  0009  080A               	movf	10,w
  3332  000A  00F4               	movwf	??_isr+4
  3333  000B  120A  118A  2D78   	ljmp	_isr
  3334                           
  3335                           	psect	idloc
  3336                           
  3337                           ;Config register IDLOC0 @ 0x2000
  3338                           ;	unspecified, using default values
  3339  2000                     	org	8192
  3340  2000  3FFF               	dw	16383
  3341                           
  3342                           ;Config register IDLOC1 @ 0x2001
  3343                           ;	unspecified, using default values
  3344  2001                     	org	8193
  3345  2001  3FFF               	dw	16383
  3346                           
  3347                           ;Config register IDLOC2 @ 0x2002
  3348                           ;	unspecified, using default values
  3349  2002                     	org	8194
  3350  2002  3FFF               	dw	16383
  3351                           
  3352                           ;Config register IDLOC3 @ 0x2003
  3353                           ;	unspecified, using default values
  3354  2003                     	org	8195
  3355  2003  3FFF               	dw	16383
  3356                           
  3357                           	psect	config
  3358                           
  3359                           ;Config register CONFIG1 @ 0x2007
  3360                           ;	Oscillator Selection bits
  3361                           ;	FOSC = INTRC_NOCLKOUT, INTOSCIO oscillator: I/O function on RA6/OSC2/CLKOUT pin, I/O f
      +                          unction on RA7/OSC1/CLKIN
  3362                           ;	Watchdog Timer Enable bit
  3363                           ;	WDTE = OFF, WDT disabled and can be enabled by SWDTEN bit of the WDTCON register
  3364                           ;	Power-up Timer Enable bit
  3365                           ;	PWRTE = OFF, PWRT disabled
  3366                           ;	RE3/MCLR pin function select bit
  3367                           ;	MCLRE = OFF, RE3/MCLR pin function is digital input, MCLR internally tied to VDD
  3368                           ;	Code Protection bit
  3369                           ;	CP = OFF, Program memory code protection is disabled
  3370                           ;	Data Code Protection bit
  3371                           ;	CPD = OFF, Data memory code protection is disabled
  3372                           ;	Brown Out Reset Selection bits
  3373                           ;	BOREN = OFF, BOR disabled
  3374                           ;	Internal External Switchover bit
  3375                           ;	IESO = OFF, Internal/External Switchover mode is disabled
  3376                           ;	Fail-Safe Clock Monitor Enabled bit
  3377                           ;	FCMEN = OFF, Fail-Safe Clock Monitor is disabled
  3378                           ;	Low Voltage Programming Enable bit
  3379                           ;	LVP = OFF, RB3 pin has digital I/O, HV on MCLR must be used for programming
  3380                           ;	In-Circuit Debugger Mode bit
  3381                           ;	DEBUG = 0x1, unprogrammed default
  3382  2007                     	org	8199
  3383  2007  20D4               	dw	8404
  3384                           
  3385                           ;Config register CONFIG2 @ 0x2008
  3386                           ;	Brown-out Reset Selection bit
  3387                           ;	BOR4V = BOR40V, Brown-out Reset set to 4.0V
  3388                           ;	Flash Program Memory Self Write Enable bits
  3389                           ;	WRT = OFF, Write protection off
  3390  2008                     	org	8200
  3391  2008  3FFF               	dw	16383

Data Sizes:
    Strings     0
    Constant    0
    Data        10
    BSS         13
    Persistent  0
    Stack       0

Auto Spaces:
    Space          Size  Autos    Used
    COMMON           14      7       9
    BANK0            80     58      79
    BANK1            80      0       0
    BANK3            96      0       0
    BANK2            96      0       0

Pointer List with Targets:

    None.

Critical Paths under _main in COMMON

    ___flmul->__Umul8_16

Critical Paths under _isr in COMMON

    None.

Critical Paths under _main in BANK0

    _main->_digits
    _digits->___fltol
    ___fltol->___flmul
    ___flmul->___xxtofl

Critical Paths under _isr in BANK0

    None.

Critical Paths under _main in BANK1

    None.

Critical Paths under _isr in BANK1

    None.

Critical Paths under _main in BANK3

    None.

Critical Paths under _isr in BANK3

    None.

Critical Paths under _main in BANK2

    None.

Critical Paths under _isr in BANK2

    None.

Call Graph Tables:

 ---------------------------------------------------------------------------------
 (Depth) Function   	        Calls       Base Space   Used Autos Params    Refs
 ---------------------------------------------------------------------------------
 (0) _main                                                 1     1      0    6036
                                             57 BANK0      1     1      0
                             _digits
                              _setup
                         _tmr0_setup
 ---------------------------------------------------------------------------------
 (1) _tmr0_setup                                           0     0      0       0
 ---------------------------------------------------------------------------------
 (1) _setup                                                1     1      0       0
                                              5 COMMON     1     1      0
 ---------------------------------------------------------------------------------
 (1) _digits                                               6     6      0    6036
                                             51 BANK0      6     6      0
                            ___awdiv
                            ___awmod
                            ___flmul
                            ___fltol
                           ___xxtofl
 ---------------------------------------------------------------------------------
 (2) ___xxtofl                                            14    10      4     566
                                              0 BANK0     14    10      4
 ---------------------------------------------------------------------------------
 (2) ___fltol                                             11     7      4     305
                                             40 BANK0     11     7      4
                            ___flmul (ARG)
                           ___xxtofl (ARG)
 ---------------------------------------------------------------------------------
 (2) ___flmul                                             26    18      8    3533
                                             14 BANK0     26    18      8
                          __Umul8_16
                           ___xxtofl (ARG)
 ---------------------------------------------------------------------------------
 (3) __Umul8_16                                            9     7      2     980
                                              5 COMMON     2     0      2
                                              0 BANK0      7     7      0
 ---------------------------------------------------------------------------------
 (2) ___awmod                                              7     3      4     793
                                              5 COMMON     1     1      0
                                              0 BANK0      6     2      4
 ---------------------------------------------------------------------------------
 (2) ___awdiv                                              9     5      4     805
                                              5 COMMON     1     1      0
                                              0 BANK0      8     4      4
 ---------------------------------------------------------------------------------
 Estimated maximum stack depth 3
 ---------------------------------------------------------------------------------
 (Depth) Function   	        Calls       Base Space   Used Autos Params    Refs
 ---------------------------------------------------------------------------------
 (4) _isr                                                  5     5      0       0
                                              0 COMMON     5     5      0
 ---------------------------------------------------------------------------------
 Estimated maximum stack depth 4
 ---------------------------------------------------------------------------------

 Call Graph Graphs:

 _main (ROOT)
   _digits
     ___awdiv
     ___awmod
     ___flmul
       __Umul8_16
       ___xxtofl (ARG)
     ___fltol
       ___flmul (ARG)
       ___xxtofl (ARG)
     ___xxtofl
   _setup
   _tmr0_setup

 _isr (ROOT)

 Address spaces:
Name               Size   Autos  Total    Cost      Usage
BANK3               60      0       0       9        0.0%
BITBANK3            60      0       0       8        0.0%
SFR3                 0      0       0       4        0.0%
BITSFR3              0      0       0       4        0.0%
BANK2               60      0       0      11        0.0%
BITBANK2            60      0       0      10        0.0%
SFR2                 0      0       0       5        0.0%
BITSFR2              0      0       0       5        0.0%
BANK1               50      0       0       7        0.0%
BITBANK1            50      0       0       6        0.0%
SFR1                 0      0       0       2        0.0%
BITSFR1              0      0       0       2        0.0%
BANK0               50     3A      4F       5       98.8%
BITBANK0            50      0       0       4        0.0%
SFR0                 0      0       0       1        0.0%
BITSFR0              0      0       0       1        0.0%
COMMON               E      7       9       1       64.3%
BITCOMMON            E      0       0       0        0.0%
CODE                 0      0       0       0        0.0%
DATA                 0      0      58      12        0.0%
ABS                  0      0      58       3        0.0%
NULL                 0      0       0       0        0.0%
STACK                0      0       0       2        0.0%
EEDATA             100      0       0       0        0.0%


Microchip Technology PIC Macro Assembler V2.35 build 20211206165544 
Symbol Table                                                                                   Sat Apr 23 23:18:53 2022

                      pc 0002                       l71 04FB                       l65 06E9  
                     l68 076E             ___awdiv@sign 0025                       fsr 0004  
    __Umul8_16@word_mpld 0024                      l351 06A9                      l338 064E  
                    l371 0577                      l620 044C                      l381 0577  
                    l631 0416                      l632 0422                      l624 03FA  
                    l378 0562                      l618 03B5                      l580 02FC  
                    l574 0390                      l593 073C                      l586 0384  
                    l595 074E                      _mod 0064                      _isr 0578  
                    _var 0062                      fsr0 0004                      indf 0000  
           ___awmod@sign 0025             ___flmul@aexp 003C             ___flmul@bexp 0041  
           ___flmul@sign 003B             ___flmul@temp 0046             ___flmul@prod 0042  
           ___fltol@exp1 0052                     l1011 06AF                     l1021 06D0  
                   l1013 06C0                     l1031 06DF                     l1023 06D1  
                   l1015 06C6                     l1007 06AA                     l1041 06E6  
                   l1033 06E0                     l1025 06D5                     l1017 06C7  
                   l1009 06AE                     l1035 06E1                     l1027 06D8  
                   l1019 06CD                     l1043 0762                     l1037 06E2  
                   l1029 06DB                     l1045 076A                     l1231 0512  
                   l1039 06E3                     l1241 0536                     l1233 0527  
                   l1225 04FC                     l1235 0528                     l1227 0509  
                   l1237 0530                     l1255 0557                     l1247 053E  
                   l1239 0532                     l1601 0676                     l1257 0567  
                   l1249 0550                     l1611 0695                     l1603 067A  
                   l1531 0736                     l1259 056C                     l1541 05E9  
                   l1605 067E                     l1613 069B                     l1533 0745  
                   l1525 0729                     l1701 0280                     l1621 0030  
                   l1551 05FD                     l1543 05ED                     l1615 06A0  
                   l1607 0688                     l1535 074A                     l1527 072B  
                   l1711 02CC                     l1703 02A8                     l1631 0047  
                   l1623 0037                     l1561 0613                     l1553 0601  
                   l1545 05F2                     l1617 06A5                     l1609 068E  
                   l1529 0732                     l1721 02E1                     l1713 02CD  
                   l1705 02B1                     l1641 0063                     l1633 004C  
                   l1625 003D                     l1801 0444                     l1571 0633  
                   l1563 0617                     l1555 0603                     l1547 05F4  
                   l1539 05E6                     l1731 0306                     l1723 02E5  
                   l1715 02D6                     l1707 02BF                     l1651 0078  
                   l1643 0069                     l1635 0054                     l1627 0041  
                   l1811 04CF                     l1573 063A                     l1565 061B  
                   l1557 0609                     l1549 05F8                     l1741 0344  
                   l1733 0314                     l1725 02F9                     l1709 02C8  
                   l1717 02DC                     l1661 0094                     l1653 0080  
                   l1645 006D                     l1637 0056                     l1629 0042  
                   l1813 04E5                     l1805 044D                     l1821 06FF  
                   l1567 062C                     l1559 060C                     l1575 0640  
                   l1591 065D                     l1583 064F                     l1751 0378  
                   l1743 034F                     l1735 0318                     l1719 02E0  
                   l1671 00D7                     l1655 0082                     l1647 006E  
                   l1639 005E                     l1807 04A9                     l1831 071F  
                   l1823 0708                     l1815 06EA                     l1577 0645  
                   l1569 0632                     l1593 0661                     l1585 0652  
                   l1753 037C                     l1745 035E                     l1737 0331  
                   l1729 0301                     l1681 0160                     l1673 00F3  
                   l1665 009D                     l1657 008A                     l1649 0073  
                   l1761 0394                     l1809 04BC                     l1825 070D  
                   l1817 06F4                     l1579 064A                     l1595 0666  
                   l1587 0656                     l1755 037D                     l1747 0368  
                   l1739 0337                     l1691 01D3                     l1683 0170  
                   l1675 011F                     l1667 00AD                     l1659 008F  
                   l1763 0399                     l1827 0716                     l1819 06F9  
                   l1597 066C                     l1589 065B                     l1757 0388  
                   l1749 036A                     l1693 01F0                     l1685 018D  
                   l1677 013B                     l1669 00BA                     l1781 03E3  
                   l1773 03C6                     l1765 039D                     l1829 0718  
                   l1599 066F                     l1695 021D                     l1687 019D  
                   l1679 0157                     l1791 041A                     l1783 03F1  
                   l1775 03CB                     l1767 03AD                     l1697 022D  
                   l1689 01BA                     l1793 0424                     l1785 0401  
                   l1777 03D8                     l1769 03BD                     l1699 025A  
                   l1795 043A                     l1787 040C                     l1779 03DF  
                   l1797 043F                     l1789 0410                     l1799 0443  
                   ?_isr 0070                     _T0IF 005A                     u2000 0656  
                   u2001 0655                     u2010 0661                     u1210 054F  
                   u2011 0660                     u1211 054E                     u2020 066C  
                   u2100 0047                     u1220 0556                     u2021 066B  
                   u2101 0046                     u1221 0555                     u1205 053F  
                   u2110 004C                     u2111 004B                     u2040 067E  
                   u2120 006D                     u1240 0567                     u1160 0509  
                   u2041 067D                     u2201 0149                     u2121 006C  
                   u1241 0566                     u1161 0508                     u2050 0688  
                   u2202 0150                     u2130 0073                     u1250 056C  
                   u1170 0520                     u2051 0687                     u2035 0670  
                   u2203 0157                     u2131 0072                     u1251 056B  
                   u1235 0559                     u2300 028E                     u2140 0078  
                   u1180 0536                     u2221 017F                     u2141 0077  
                   u1181 0535                     u2070 069B                     u2222 0186  
                   u2150 008F                     u1190 053D                     u2071 069A  
                   u2055 0684                     u2311 029A                     u2231 01AC  
                   u2223 018D                     u2215 0159                     u2151 008E  
                   u1191 053C                     u1175 051B                     u2080 06A0  
                   u2400 0306                     u2312 02A1                     u2232 01B3  
                   u2160 0094                     u2081 069F                     u2065 068F  
                   u2401 0305                     u2313 02A8                     u2305 0289  
                   u2233 01BA                     u2161 0093                     u2410 0318  
                   u2090 0041                     u2411 0317                     u2251 01E2  
                   u2171 00E5                     u2091 0040                     u2420 0327  
                   u2340 02CC                     u2252 01E9                     u2172 00EC  
                   u2500 03DE                     u2341 02CB                     u2325 02AA  
                   u2261 020F                     u2253 01F0                     u2245 01BC  
                   u2181 0101                     u2173 00F3                     u2501 03DD  
                   u2430 0344                     u2262 0216                     u2182 0108  
                   u2431 0343                     u2335 02C1                     u2271 023C  
                   u2263 021D                     u2191 012D                     u2183 010F  
                   u2440 035E                     u2360 02E0                     u2280 0266  
                   u2272 0243                     u2192 0134                     u2520 0400  
                   u2600 06FF                     u2441 035D                     u2425 0322  
                   u2361 02DF                     u2273 024A                     u2193 013B  
                   u2521 03FF                     u2601 06FE                     u2450 037C  
                   u2370 02E5                     u2610 0708                     u2451 037B  
                   u2435 0340                     u2371 02E4                     u2355 02CF  
                   u2291 0272                     u2515 03F2                     u2611 0707  
                   u1900 05ED                     u2380 02F9                     u2292 0279  
                   u2540 0410                     u2460 0399                     u2620 0716  
                   u1901 05EC                     u2445 035A                     u2381 02F8  
                   u2293 0280                     u2285 0261                     u2541 040F  
                   u2461 0398                     u2621 0715                     u1910 05F8  
                   u2390 0300                     u2550 0416                     u2470 039D  
                   u1911 05F7                     u2391 02FF                     u2551 0415  
                   u2535 0405                     u2471 039C                     u1920 0609  
                   u2560 041A                     u2480 03BD                     u1921 0608  
                   u2561 0419                     u2481 03BC                     u2570 042F  
                   u1940 061B                     u2580 043F                     u1941 061A  
                   u2581 043E                     u2637 071C                     u1870 0736  
                   u2590 0443                     u1935 060D                     u1871 0735  
                   u2591 0442                     u2575 042A                     u2495 03D0  
                   u2647 06DD                     u1960 062C                     u1961 062B  
                   u1890 074A                     u1955 061C                     u1891 0749  
                   u1980 0640                     u1981 063F                     u1965 0628  
                   u1885 073D                     u1990 0645                     u1991 0644  
                   u1975 0634                     i1l81 05DD                     i1l76 059C  
                   i1l87 05DD                     _TMR0 0001                     _main 06EA  
                   _huns 005E                     _ones 005A                     _tens 005C  
                   btemp 007E                     start 000E                    ??_isr 0070  
          ___fltol@sign1 0051                    ?_main 0070          __end_of___awdiv 064F  
        __end_of___awmod 06AA          __end_of___flmul 0391          __end_of___fltol 0578  
                  _ANSEL 0188          ___awdiv@divisor 0020          ___awdiv@counter 0024  
                  _PORTA 0005                    _PORTC 0007                    _PORTD 0008  
                  _PORTE 0009                    _TRISA 0085                    _TRISC 0087  
                  _TRISD 0088                    _TRISE 0089                    _index 0065  
                  _setup 06AA                    pclath 000A                    status 0003  
                  wtemp0 007E          __initialization 0011             __end_of_main 0726  
                 ??_main 0059                   _ADRESH 001E         ___awdiv@dividend 0022  
                 ?_setup 0070                   _ANSELH 0189                   i1l1501 05D9  
                 i1l1503 05DA                   i1l1461 058F                   i1l1471 05A3  
                 i1l1463 0598                   i1l1455 0578                   i1l1481 05B2  
                 i1l1473 05A4                   i1l1465 059A                   i1l1457 057E  
                 i1l1491 05C5                   i1l1475 05AA                   i1l1483 05B7  
                 i1l1467 05A0                   i1l1459 0587                   i1l1485 05BD  
                 i1l1493 05CA                   i1l1477 05B0                   i1l1469 05A1  
                 i1l1495 05D1                   i1l1487 05C3                   i1l1479 05B1  
                 i1l1497 05D7                   i1l1489 05C4                   i1l1499 05D8  
                 u180_20 05A0                   u180_21 059F                   u181_20 05AA  
                 u181_21 05A9                   u182_20 05BD                   u182_21 05BC  
                 u183_20 05D1                   u183_21 05D0                   u177_20 057E  
                 u177_21 057D                   u178_20 0587                   u178_21 0586  
                 u179_20 0598                   u179_21 0597         __end_of___xxtofl 044D  
              ??___awdiv 0075                ??___awmod 0075                ??___flmul 0036  
              ??___fltol 004C                   _digits 044D         ___awdiv@quotient 0026  
        ___awmod@divisor 0020          ___awmod@counter 0024                   saved_w 007E  
           ___xxtofl@arg 002A             ___xxtofl@exp 0029             ___xxtofl@val 0020  
__end_of__initialization 002C               ___fltol@f1 0048           __pcstackCOMMON 0070  
           __pidataBANK0 076F            __end_of_setup 06EA           _OPTION_REGbits 0081  
                ??_setup 0075               __pbssBANK0 005A        __end_of__Umul8_16 074F  
             _digits$934 0055               __pmaintext 06EA               __pintentry 0004  
                ?_digits 0070                ?___xxtofl 0020                  ___awdiv 05E6  
                ___awmod 064F                  ___flmul 0030                  ___fltol 04FC  
                __ptext1 0762                  __ptext2 06AA                  __ptext3 044D  
                __ptext4 0391                  __ptext5 04FC                  __ptext6 0030  
                __ptext7 0726                  __ptext8 064F                  __ptext9 05E6  
             ??___xxtofl 0024         ___awmod@dividend 0022     end_of_initialization 002C  
             _tmr0_setup 0762                _PORTCbits 0007                _PORTEbits 0009  
          ___xxtofl@sign 0028              ___flmul@grs 003D           __end_of_digits 04FC  
    start_initialization 0011              __end_of_isr 05E6              ?_tmr0_setup 0070  
             init_fetch0 074F                 ??_digits 0053                __Umul8_16 0726  
            __pdataBANK0 0065                ___flmul@a 0032                ___flmul@b 002E  
            __pbssCOMMON 0077                ___latbits 0002            __pcstackBANK0 0020  
               ?___awdiv 0020                 ?___awmod 0020                 ?___flmul 002E  
               ?___fltol 0048               ?__Umul8_16 0075                _disp_flag 0077  
      interrupt_function 0004                 _PIE1bits 008C                 _PIR1bits 000C  
             _ADCON0bits 001F               _ADCON1bits 009F              ??__Umul8_16 0020  
               ___xxtofl 0391                 __ptext10 0578             ??_tmr0_setup 0075  
               _volt_val 0060       __end_of_tmr0_setup 076F               _INTCONbits 000B  
               init_ram0 0753                 intlevel1 0000               _OSCCONbits 008F  
 __Umul8_16@multiplicand 0075     __Umul8_16@multiplier 0026        __Umul8_16@product 0022  
